(dp1
V6643891
p2
V124
p3
sV4672219
p4
V19
p5
sV4672210
p6
V6
sV6552972
p7
V8
sV6552977
p8
V50
p9
sV6554758
p10
V32
p11
sV6609620
p12
V130
p13
sV6609629
p14
V179
p15
sV6553083
p16
V53
p17
sV6227628
p18
V10
p19
sV6589823
p20
V14
p21
sV6594211
p22
V264
p23
sV6558853
p24
V304
p25
sV6558854
p26
V936
p27
sV6558855
p28
V367
p29
sV6558856
p30
V670
p31
sV6558857
p32
V859
p33
sV4672075
p34
V39
p35
sV6651984
p36
V2
sV6656409
p37
V0
sV6652769
p38
V651
p39
sV6626657
p40
V2
sV6626652
p41
V2
sV6556909
p42
V6
sV6626650
p43
V2
sV4696214
p44
V65
p45
sV6091074
p46
V0
sV6627797
p47
V20
p48
sV6627790
p49
V7
sV6091078
p50
V23
p51
sV6627793
p52
V46
p53
sV6090705
p54
V8
sV6228109
p55
V35
p56
sV5164168
p57
V17
p58
sV5164169
p59
V3
sV5164162
p60
V19
p61
sV5164163
p62
V16
p63
sV5164164
p64
V17
p65
sV5164165
p66
V17
p67
sV5164166
p68
V0
sV5164167
p69
V18
p70
sV6557503
p71
V9
sV6091254
p72
V0
sV4412435
p73
V9
sV6547213
p74
V109
p75
sV6589440
p76
V196
p77
sV6547219
p78
V101
p79
sV6656695
p80
V13
p81
sV6658448
p82
V0
sV6637279
p83
V19
p84
sV6637287
p85
V79
p86
sV6637274
p87
V56
p88
sV6637275
p89
V59
p90
sV6637273
p91
V53
p92
sV6641581
p93
V7
sV6657466
p94
V0
sV6614789
p95
V9
sV6614036
p96
V0
sV6638424
p97
V0
sV6610060
p98
V166
p99
sV6641231
p100
V0
sV6090859
p101
V5
sV5241573
p102
V101
p103
sV6090850
p104
V8
sV6640721
p105
V12
p106
sV6645009
p107
V79
p108
sV6610201
p109
V73
p110
sV6599624
p111
V1
sV6599625
p112
V1
sV6599626
p113
V1
sV6599627
p114
V1
sV6599620
p115
V1
sV6599621
p116
V1
sV6599622
p117
V1
sV6599623
p118
V1
sV6599628
p119
V1
sV6599629
p120
V1
sV6250381
p121
V2
sV6555347
p122
V58
p123
sV6555346
p124
V31
p125
sV6555345
p126
V18
p127
sV6555344
p128
V22
p129
sV6555343
p130
V32
p131
sV6555342
p132
V23
p133
sV6555341
p134
V39
p135
sV6555340
p136
V0
sV6615256
p137
V2
sV6555349
p138
V22
p139
sV6555348
p140
V41
p141
sV6620093
p142
V82
p143
sV6615787
p144
V22
p145
sV6640982
p146
V11
p147
sV6553165
p148
V59
p149
sV6553160
p150
V40
p151
sV6615079
p152
V0
sV6615074
p153
V0
sV6643950
p154
V111
p155
sV6609439
p156
V366
p157
sV5241748
p158
V52
p159
sV5241744
p160
V60
p161
sV6609430
p162
V457
p163
sV5241740
p164
V87
p165
sV6607128
p166
V9
sV6607121
p167
V6
sV6607437
p168
V2
sV6557085
p169
V0
sV6532049
p170
V175
p171
sV6532048
p172
V94
p173
sV6532043
p174
V189
p175
sV6532042
p176
V198
p177
sV6532041
p178
V193
p179
sV6532040
p180
V39
p181
sV6532047
p182
V92
p183
sV6532046
p184
V96
p185
sV6532045
p186
V88
p187
sV6532044
p188
V79
p189
sV6317668
p190
V0
sV6317660
p191
V0
sV6546534
p192
V7
sV6546535
p193
V10
p194
sV6546536
p195
V0
sV6546537
p196
V37
p197
sV6546538
p198
V16
p199
sV6546539
p200
V3
sV4079862
p201
V0
sV6557261
p202
V6
sV6531639
p203
V52
p204
sV6531638
p205
V78
p206
sV6531635
p207
V72
p208
sV6531634
p209
V94
p210
sV6531637
p211
V199
p212
sV6531636
p213
V142
p214
sV6531633
p215
V5
sV6658944
p216
V0
sV6627717
p217
V0
sV6627712
p218
V0
sV6547405
p219
V26
p220
sV6590325
p221
V5
sV5158880
p222
V20
p223
sV5158881
p224
V20
p225
sV5158882
p226
V4
sV5158883
p227
V4
sV5158884
p228
V15
p229
sV5158885
p230
V5
sV5158886
p231
V5
sV5158887
p232
V24
p233
sV5158888
p234
V11
p235
sV5158889
p236
V9
sV6551788
p237
V13
p238
sV6656569
p239
V7
sV6554362
p240
V0
sV6141449
p241
V4
sV6589056
p242
V96
p243
sV6589057
p244
V0
sV6589054
p245
V87
p246
sV6589055
p247
V81
p248
sV6589052
p249
V86
p250
sV6589053
p251
V96
p252
sV6589050
p253
V93
p254
sV6589051
p255
V87
p256
sV6589058
p257
V97
p258
sV5721302
p259
V2
sV5721306
p260
V37
p261
sV6657122
p262
V0
sV6653177
p263
V13
p264
sV6657128
p265
V0
sV6637684
p266
V1
sV6589637
p267
V3
sV6078404
p268
V0
sV6613959
p269
V0
sV6205661
p270
V11
p271
sV6547009
p272
V15
p273
sV6627848
p274
V0
sV6656614
p275
V8
sV6205666
p276
V21
p277
sV6627844
p278
V1
sV6627845
p279
V1
sV6627846
p280
V2
sV6627847
p281
V3
sV6627840
p282
V4
sV6627842
p283
V3
sV6627843
p284
V2
sV6579279
p285
V237
p286
sV6609988
p287
V448
p288
sV6579273
p289
V222
p290
sV6653398
p291
V0
sV6653394
p292
V0
sV6653390
p293
V0
sV6642240
p294
V0
sV6551732
p295
V24
p296
sV6551736
p297
V55
p298
sV6553998
p299
V0
sV6553993
p300
V21
p301
sV4412603
p302
V8
sV6638361
p303
V11
p304
sV6545743
p305
V457
p306
sV6677119
p307
V28
p308
sV6677118
p309
V30
p310
sV6677117
p311
V30
p312
sV6677116
p313
V30
p314
sV6677115
p315
V30
p316
sV6677114
p317
V30
p318
sV6677113
p319
V30
p320
sV6677112
p321
V30
p322
sV6545749
p323
V440
p324
sV6597950
p325
V39
p326
sV6638853
p327
V0
sV6597951
p328
V107
p329
sV6521209
p330
V8
sV6521200
p331
V18
p332
sV6545521
p333
V416
p334
sV6545527
p335
V461
p336
sV6554510
p337
V17
p338
sV6554515
p339
V4
sV6552649
p340
V8
sV6552648
p341
V19
p342
sV6100529
p343
V0
sV6100528
p344
V31
p345
sV6100527
p346
V29
p347
sV6644036
p348
V66
p349
sV6620971
p350
V44
p351
sV6620970
p352
V47
p353
sV6620973
p354
V47
p355
sV6620972
p356
V45
p357
sV6620975
p358
V42
p359
sV6620974
p360
V44
p361
sV6620977
p362
V48
p363
sV6620976
p364
V48
p365
sV6620979
p366
V46
p367
sV6620978
p368
V48
p369
sV6643567
p370
V115
p371
sV6611496
p372
V36
p373
sV6611497
p374
V36
p375
sV6611494
p376
V72
p377
sV6611495
p378
V96
p379
sV6611492
p380
V17
p381
sV6611493
p382
V84
p383
sV6611490
p384
V33
p385
sV6611491
p386
V8
sV6611498
p387
V38
p388
sV6611499
p389
V54
p390
sV6522035
p391
V39
p392
sV6599699
p393
V0
sV6609601
p394
V293
p395
sV6589804
p396
V8
sV6589809
p397
V8
sV4672273
p398
V17
p399
sV6552911
p400
V25
p401
sV6552914
p402
V79
p403
sV6627277
p404
V0
sV6552919
p405
V19
p406
sV6611355
p407
V72
p408
sV6644226
p409
V86
p410
sV6611425
p411
V8
sV6558872
p412
V983
p413
sV6558873
p414
V886
p415
sV6558870
p416
V492
p417
sV6558871
p418
V998
p419
sV6553200
p420
V25
p421
sV6201485
p422
V15
p423
sV6558874
p424
V793
p425
sV6201487
p426
V123
p427
sV6599181
p428
V100
p429
sV6201489
p430
V26
p431
sV6558878
p432
V967
p433
sV6614719
p434
V0
sV6599186
p435
V95
p436
sV6643747
p437
V110
p438
sV4672093
p439
V15
p440
sV6627016
p441
V0
sV5821208
p442
V64
p443
sV6556920
p444
V5
sV6611428
p445
V0
sV6091014
p446
V23
p447
sV6448218
p448
V0
sV3942850
p449
V36
p450
sV6090723
p451
V7
sV6549955
p452
V166
p453
sV6656420
p454
V0
sV6547279
p455
V27
p456
sV6638622
p457
V0
sV6628108
p458
V0
sV6628109
p459
V0
sV6628100
p460
V2
sV6628101
p461
V23
p462
sV6628102
p463
V0
sV6628103
p464
V8
sV6628104
p465
V12
p466
sV6628105
p467
V17
p468
sV6628106
p469
V5
sV6628107
p470
V0
sV5954687
p471
V0
sV5954684
p472
V6
sV6637218
p473
V415
p474
sV6637219
p475
V83
p476
sV6642038
p477
V0
sV6637210
p478
V244
p479
sV6637211
p480
V691
p481
sV6637212
p482
V670
p483
sV6637213
p484
V497
p485
sV6637217
p486
V253
p487
sV6614011
p488
V0
sV6614015
p489
V0
sV6641217
p490
V8
sV6090878
p491
V41
p492
sV6090872
p493
V11
p494
sV6521920
p495
V29
p496
sV6521698
p497
V10
p498
sV6644996
p499
V46
p500
sV6551696
p501
V13
p502
sV6551692
p503
V11
p504
sV6638997
p505
V0
sV6553834
p506
V3
sV6610042
p507
V51
p508
sV6599608
p509
V1
sV6553830
p510
V0
sV6599606
p511
V1
sV6599607
p512
V1
sV6599604
p513
V1
sV6599605
p514
V0
sV6599602
p515
V1
sV6599603
p516
V1
sV6610048
p517
V148
p518
sV6553838
p519
V1
sV6615274
p520
V2
sV6644191
p521
V81
p522
sV6555361
p523
V30
p524
sV6547802
p525
V21
p526
sV6555363
p527
V29
p528
sV6555362
p529
V12
p530
sV6555365
p531
V15
p532
sV6555364
p533
V24
p534
sV6555367
p535
V16
p536
sV6555366
p537
V18
p538
sV6555369
p539
V15
p540
sV6555368
p541
V15
p542
sV6547809
p543
V27
p544
sV6547808
p545
V18
p546
sV6641075
p547
V1
sV6545833
p548
V444
p549
sV6610227
p550
V46
p551
sV6554185
p552
V0
sV6644371
p553
V79
p554
sV6100640
p555
V0
sV6100649
p556
V26
p557
sV6609457
p558
V450
p559
sV5241760
p560
V50
p561
sV5241769
p562
V23
p563
sV5721334
p564
V1
sV6636486
p565
V0
sV5721330
p566
V0
sV6557063
p567
V4
sV6614906
p568
V0
sV6648131
p569
V90
p570
sV6550259
p571
V65
p572
sV6550256
p573
V191
p574
sV6550257
p575
V186
p576
sV6550254
p577
V193
p578
sV6550255
p579
V185
p580
sV6550252
p581
V74
p582
sV6550253
p583
V184
p584
sV6550250
p585
V68
p586
sV6550251
p587
V279
p588
sV6627480
p589
V9
sV6546515
p590
V51
p591
sV6557206
p592
V4
sV6658960
p593
V12
p594
sV6656859
p595
V8
sV6607149
p596
V22
p597
sV6607418
p598
V13
p599
sV6627736
p600
V1
sV5973301
p601
V24
p602
sV6599045
p603
V100
p604
sV6552813
p605
V124
p606
sV6268719
p607
V11
p608
sV6589032
p609
V96
p610
sV6589033
p611
V0
sV6589034
p612
V95
p613
sV6589035
p614
V48
p615
sV6589036
p616
V14
p617
sV6589037
p618
V32
p619
sV6589038
p620
V49
p621
sV6589039
p622
V99
p623
sV6268714
p624
V11
p625
sV5721362
p626
V40
p627
sV5721366
p628
V0
sV6547392
p629
V102
p630
sV5869668
p631
V8
sV6657106
p632
V5
sV6658633
p633
V0
sV6627866
p634
V3
sV6627867
p635
V0
sV6627864
p636
V0
sV6642486
p637
V10
p638
sV6627862
p639
V3
sV6627863
p640
V3
sV6627860
p641
V1
sV6627861
p642
V0
sV6627868
p643
V0
sV6627869
p644
V2
sV6205649
p645
V12
p646
sV6613965
p647
V0
sV6205642
p648
V37
p649
sV6656677
p650
V14
p651
sV6205678
p652
V41
p653
sV6638299
p654
V5
sV6552710
p655
V25
p656
sV6647509
p657
V191
p658
sV6552715
p659
V14
p660
sV6657815
p661
V0
sV6642262
p662
V0
sV6641688
p663
V0
sV6658095
p664
V1
sV6677139
p665
V12
p666
sV6677138
p667
V12
p668
sV6545725
p669
V240
p670
sV6677131
p671
V30
p672
sV6677130
p673
V30
p674
sV6677133
p675
V15
p676
sV6677132
p677
V20
p678
sV6677135
p679
V30
p680
sV6677134
p681
V30
p682
sV6677137
p683
V20
p684
sV6521263
p685
V14
p686
sV6554572
p687
V2
sV6552664
p688
V35
p689
sV6552667
p690
V34
p691
sV6552666
p692
V15
p693
sV6552660
p694
V13
p695
sV6552663
p696
V20
p697
sV6552669
p698
V29
p699
sV6552668
p700
V33
p701
sV6143573
p702
V73
p703
sV5954324
p704
V0
sV6554791
p705
V0
sV6521485
p706
V3
sV6522017
p707
V2
sV6610066
p708
V39
p709
sV6609664
p710
V255
p711
sV6614031
p712
V0
sV6615425
p713
V0
sV6552939
p714
V102
p715
sV4672255
p716
V32
p717
sV6552934
p718
V36
p719
sV6627256
p720
V0
sV6556636
p721
V96
p722
sV6607087
p723
V35
p724
sV6553225
p725
V33
p726
sV6558890
p727
V479
p728
sV6558891
p729
V567
p730
sV6607080
p731
V28
p732
sV6553221
p733
V5
sV6627034
p734
V0
sV6029356
p735
V157
p736
sV6029351
p737
V260
p738
sV5158869
p739
V0
sV5158866
p740
V0
sV5158867
p741
V0
sV6227793
p742
V0
sV6652022
p743
V1
sV6556942
p744
V8
sV6091032
p745
V0
sV3942838
p746
V39
p747
sV6656776
p748
V23
p749
sV3942830
p750
V44
p751
sV3942834
p752
V45
p753
sV6228148
p754
V36
p755
sV6609574
p756
V273
p757
sV6571482
p758
V45
p759
sV6228140
p760
V14
p761
sV6090746
p762
V29
p763
sV6611276
p764
V556
p765
sV6611277
p766
V120
p767
sV5954523
p768
V14
p769
sV6542019
p770
V5
sV6658123
p771
V0
sV5821262
p772
V27
p773
sV6656445
p774
V7
sV6547252
p775
V5
sV6227676
p776
V11
p777
sV6554894
p778
V0
sV6644478
p779
V135
p780
sV6547255
p781
V33
p782
sV6628122
p783
V0
sV6628123
p784
V0
sV6628120
p785
V0
sV6653457
p786
V27
p787
sV6658154
p788
V1
sV6653453
p789
V23
p790
sV6658409
p791
V0
sV6643614
p792
V110
p793
sV6637232
p794
V233
p795
sV6637233
p796
V364
p797
sV6637230
p798
V14
p799
sV6637237
p800
V416
p801
sV6637234
p802
V996
p803
sV6646024
p804
V2
sV6637988
p805
V8
sV6637238
p806
V273
p807
sV6637239
p808
V90
p809
sV6642018
p810
V0
sV6090811
p811
V21
p812
sV6090816
p813
V4
sV6610209
p814
V42
p815
sV6589773
p816
V2
sV6589779
p817
V4
sV6638606
p818
V0
sV6521904
p819
V19
p820
sV6551676
p821
V21
p822
sV6599668
p823
V1
sV6599669
p824
V1
sV6614071
p825
V41
p826
sV6553812
p827
V14
p828
sV6645224
p829
V58
p830
sV6553816
p831
V1
sV6599660
p832
V1
sV6599661
p833
V0
sV6599662
p834
V1
sV6599663
p835
V0
sV6599664
p836
V1
sV6599665
p837
V1
sV6599666
p838
V1
sV6599667
p839
V1
sV5973289
p840
V36
p841
sV6615213
p842
V0
sV6589307
p843
V59
p844
sV6615218
p845
V4
sV6555309
p846
V9
sV6555308
p847
V23
p848
sV6547829
p849
V23
p850
sV6547828
p851
V22
p852
sV6547825
p853
V22
p854
sV6547824
p855
V13
p856
sV6547827
p857
V24
p858
sV6555300
p859
V28
p860
sV6555307
p861
V57
p862
sV6547820
p863
V49
p864
sV6547823
p865
V18
p866
sV6547822
p867
V18
p868
sV6611519
p869
V31
p870
sV6611518
p871
V27
p872
sV6100668
p873
V68
p874
sV6100669
p875
V65
p876
sV6611513
p877
V19
p878
sV6611512
p879
V98
p880
sV6611511
p881
V76
p882
sV6611510
p883
V78
p884
sV6611517
p885
V27
p886
sV6100663
p887
V35
p888
sV6611515
p889
V36
p890
sV6611514
p891
V16
p892
sV5241701
p893
V4
sV6641892
p894
V0
sV5241709
p895
V0
sV6609476
p896
V81
p897
sV6578951
p898
V172
p899
sV6636462
p900
V12
p901
sV6557041
p902
V1
sV6668878
p903
V101
p904
sV6668879
p905
V85
p906
sV6317993
p907
V3
sV6614922
p908
V31
p909
sV6317624
p910
V2
sV6550238
p911
V490
p912
sV6550239
p913
V484
p914
sV6550230
p915
V494
p916
sV6550231
p917
V164
p918
sV6550232
p919
V294
p920
sV6550233
p921
V197
p922
sV6550234
p923
V496
p924
sV6550235
p925
V499
p926
sV6550236
p927
V192
p928
sV6579061
p929
V176
p930
sV6557228
p931
V4
sV6668872
p932
V148
p933
sV6668873
p934
V65
p935
sV6658983
p936
V24
p937
sV6607163
p938
V38
p939
sV6123699
p940
V12
p941
sV6627758
p942
V59
p943
sV6627759
p944
V59
p945
sV6627750
p946
V14
p947
sV6627751
p948
V12
p949
sV6627752
p950
V29
p951
sV6627753
p952
V14
p953
sV6627754
p954
V23
p955
sV6627755
p956
V50
p957
sV6627756
p958
V42
p959
sV6627757
p960
V90
p961
sV6557617
p962
V98
p963
sV6556799
p964
V4
sV6557615
p965
V97
p966
sV6557614
p967
V95
p968
sV6599065
p969
V100
p970
sV6599060
p971
V100
p972
sV6141482
p973
V109
p974
sV6141487
p975
V4
sV6658766
p976
V0
sV6138805
p977
V1
sV6652808
p978
V277
p979
sV5721346
p980
V0
sV6656387
p981
V0
sV5721342
p982
V0
sV6100613
p983
V17
p984
sV6091191
p985
V14
p986
sV6590386
p987
V75
p988
sV6589785
p989
V14
p990
sV6627800
p991
V0
sV6627801
p992
V12
p993
sV6627802
p994
V18
p995
sV6627803
p996
V7
sV6627804
p997
V7
sV6627805
p998
V17
p999
sV6627807
p1000
V11
p1001
sV6627808
p1002
V0
sV6627809
p1003
V9
sV6656659
p1004
V8
sV5164266
p1005
V20
p1006
sV5164262
p1007
V35
p1008
sV6579232
p1009
V34
p1010
sV4079754
p1011
V21
p1012
sV6657836
p1013
V6
sV6647523
p1014
V186
p1015
sV6642202
p1016
V0
sV6546934
p1017
V5
sV6621008
p1018
V47
p1019
sV6546938
p1020
V4
sV6545878
p1021
V2
sV6545879
p1022
V0
sV6545874
p1023
V0
sV6545875
p1024
V1
sV6545876
p1025
V0
sV6545877
p1026
V1
sV6545870
p1027
V2
sV6545871
p1028
V0
sV6545872
p1029
V0
sV6545873
p1030
V1
sV6613861
p1031
V3
sV6658210
p1032
V0
sV6638812
p1033
V0
sV6521245
p1034
V11
p1035
sV6554555
p1036
V12
p1037
sV6554225
p1038
V6
sV6554550
p1039
V0
sV6554220
p1040
V4
sV6552689
p1041
V18
p1042
sV6552688
p1043
V17
p1044
sV6552687
p1045
V29
p1046
sV6552686
p1047
V13
p1048
sV6552685
p1049
V4
sV6552684
p1050
V35
p1051
sV6552683
p1052
V18
p1053
sV6552682
p1054
V17
p1055
sV6552681
p1056
V36
p1057
sV6677153
p1058
V15
p1059
sV6677152
p1060
V20
p1061
sV6677151
p1062
V16
p1063
sV6677150
p1064
V15
p1065
sV6677157
p1066
V7
sV6677156
p1067
V20
p1068
sV6677155
p1069
V20
p1070
sV6677154
p1071
V14
p1072
sV6677159
p1073
V28
p1074
sV6677158
p1075
V8
sV6143551
p1076
V43
p1077
sV5954346
p1078
V6
sV6022485
p1079
V109
p1080
sV6022489
p1081
V71
p1082
sV6544471
p1083
V93
p1084
sV6544476
p1085
V44
p1086
sV6615406
p1087
V1
sV6644780
p1088
V48
p1089
sV6615150
p1090
V0
sV6553027
p1091
V129
p1092
sV6553022
p1093
V21
p1094
sV6615158
p1095
V0
sV6627232
p1096
V4
sV6643832
p1097
V43
p1098
sV6553241
p1099
V10
p1100
sV6553245
p1101
V21
p1102
sV6644431
p1103
V86
p1104
sV6606913
p1105
V29
p1106
sV6606912
p1107
V48
p1108
sV6606911
p1109
V48
p1110
sV6606910
p1111
V28
p1112
sV6606917
p1113
V49
p1114
sV6606916
p1115
V14
p1116
sV6606915
p1117
V16
p1118
sV6606914
p1119
V5
sV6029376
p1120
V134
p1121
sV6606919
p1122
V30
p1123
sV6606918
p1124
V46
p1125
sV6029371
p1126
V58
p1127
sV6609646
p1128
V349
p1129
sV6610160
p1130
V269
p1131
sV6643783
p1132
V141
p1133
sV4696272
p1134
V9
sV6641866
p1135
V0
sV6614112
p1136
V0
sV4079922
p1137
V0
sV3942810
p1138
V20
p1139
sV3942814
p1140
V20
p1141
sV3942818
p1142
V23
p1143
sV6546729
p1144
V0
sV6546728
p1145
V0
sV6546721
p1146
V0
sV6546720
p1147
V0
sV6546723
p1148
V14
p1149
sV6546722
p1150
V0
sV6546725
p1151
V7
sV6546724
p1152
V20
p1153
sV6546727
p1154
V20
p1155
sV6546726
p1156
V5
sV6542039
p1157
V0
sV6542038
p1158
V10
p1159
sV5954502
p1160
V1
sV5954509
p1161
V27
p1162
sV6542030
p1163
V18
p1164
sV6542033
p1165
V0
sV6542032
p1166
V0
sV6542035
p1167
V19
p1168
sV6542034
p1169
V22
p1170
sV6542037
p1171
V0
sV6542036
p1172
V13
p1173
sV5821248
p1174
V15
p1175
sV6556964
p1176
V2
sV6227657
p1177
V0
sV6228309
p1178
V15
p1179
sV6619983
p1180
V78
p1181
sV6619988
p1182
V81
p1183
sV6653473
p1184
V0
sV6658175
p1185
V1
sV5954646
p1186
V0
sV5954647
p1187
V0
sV5954641
p1188
V0
sV5954648
p1189
V0
sV5164186
p1190
V4
sV6228163
p1191
V0
sV5164182
p1192
V8
sV5721282
p1193
V34
p1194
sV6228169
p1195
V0
sV5721286
p1196
V73
p1197
sV4412587
p1198
V30
p1199
sV6090832
p1200
V1
sV6138783
p1201
V9
sV6589752
p1202
V0
sV6589757
p1203
V0
sV6589204
p1204
V22
p1205
sV6205564
p1206
V27
p1207
sV4696172
p1208
V9
sV6638664
p1209
V0
sV6638669
p1210
V2
sV6641205
p1211
V1
sV6599642
p1212
V1
sV6599643
p1213
V1
sV6599640
p1214
V1
sV6599641
p1215
V1
sV6599646
p1216
V0
sV6599647
p1217
V1
sV6599644
p1218
V1
sV6599645
p1219
V1
sV6599648
p1220
V1
sV6599649
p1221
V1
sV5053700
p1222
V38
p1223
sV6641258
p1224
V0
sV6614728
p1225
V0
sV6614055
p1226
V0
sV6645200
p1227
V61
p1228
sV6553870
p1229
V2
sV6614723
p1230
V0
sV6610004
p1231
V545
p1232
sV6555325
p1233
V31
p1234
sV6555324
p1235
V23
p1236
sV6555326
p1237
V26
p1238
sV6555321
p1239
V15
p1240
sV6555320
p1241
V29
p1242
sV6555323
p1243
V43
p1244
sV6555322
p1245
V34
p1246
sV6640696
p1247
V1
sV6615233
p1248
V0
sV6100467
p1249
V48
p1250
sV6644155
p1251
V72
p1252
sV6620038
p1253
V85
p1254
sV6620033
p1255
V77
p1256
sV6100608
p1257
V15
p1258
sV6029167
p1259
V13
p1260
sV6100601
p1261
V0
sV6100604
p1262
V0
sV6677368
p1263
V0
sV6677364
p1264
V75
p1265
sV6677365
p1266
V0
sV6677367
p1267
V15
p1268
sV6636447
p1269
V10
p1270
sV5241729
p1271
V40
p1272
sV6317810
p1273
V14
p1274
sV5241721
p1275
V32
p1276
sV5241725
p1277
V19
p1278
sV6578755
p1279
V357
p1280
sV6578977
p1281
V482
p1282
sV4672192
p1283
V10
p1284
sV6554057
p1285
V21
p1286
sV6554053
p1287
V13
p1288
sV6550212
p1289
V358
p1290
sV6550213
p1291
V694
p1292
sV6550210
p1293
V105
p1294
sV6550211
p1295
V388
p1296
sV6550216
p1297
V0
sV6550217
p1298
V23
p1299
sV6550214
p1300
V32
p1301
sV6550215
p1302
V6
sV6317975
p1303
V0
sV6550218
p1304
V139
p1305
sV6317601
p1306
V4
sV6644335
p1307
V100
p1308
sV6644840
p1309
V48
p1310
sV4672202
p1311
V16
p1312
sV6615099
p1313
V0
sV6656812
p1314
V13
p1315
sV6654678
p1316
V0
sV6589988
p1317
V0
sV6668885
p1318
V152
p1319
sV6668884
p1320
V154
p1321
sV6668887
p1322
V164
p1323
sV6668886
p1324
V339
p1325
sV6668883
p1326
V165
p1327
sV6546410
p1328
V100
p1329
sV6668889
p1330
V173
p1331
sV6668888
p1332
V844
p1333
sV6556777
p1334
V13
p1335
sV6556775
p1336
V4
sV6556774
p1337
V8
sV6556773
p1338
V28
p1339
sV6556772
p1340
V10
p1341
sV6556771
p1342
V39
p1343
sV6556770
p1344
V55
p1345
sV6658793
p1346
V5
sV6549760
p1347
V61
p1348
sV6549766
p1349
V57
p1350
sV6652821
p1351
V442
p1352
sV6547357
p1353
V8
sV6547350
p1354
V8
sV6628862
p1355
V296
p1356
sV6628866
p1357
V271
p1358
sV6201491
p1359
V35
p1360
sV6627772
p1361
V47
p1362
sV6627773
p1363
V49
p1364
sV6612518
p1365
V5
sV6627771
p1366
V23
p1367
sV6627776
p1368
V37
p1369
sV6627777
p1370
V3
sV6627774
p1371
V4
sV6627775
p1372
V35
p1373
sV6612512
p1374
V18
p1375
sV6612513
p1376
V18
p1377
sV6627778
p1378
V7
sV6612511
p1379
V0
sV6091173
p1380
V10
p1381
sV6612517
p1382
V98
p1383
sV6612514
p1384
V0
sV6612515
p1385
V3
sV5158934
p1386
V13
p1387
sV5158935
p1388
V9
sV5158936
p1389
V7
sV5158937
p1390
V7
sV5158930
p1391
V0
sV5158931
p1392
V0
sV5158932
p1393
V3
sV5158933
p1394
V0
sV6627823
p1395
V0
sV6627820
p1396
V3
sV6627821
p1397
V0
sV5158938
p1398
V0
sV5158939
p1399
V18
p1400
sV6627824
p1401
V3
sV6627825
p1402
V1
sV5164246
p1403
V11
p1404
sV6647545
p1405
V55
p1406
sV4079778
p1407
V0
sV6546919
p1408
V9
sV6546913
p1409
V7
sV6589690
p1410
V12
p1411
sV6589695
p1412
V1
sV6638344
p1413
V1
sV6638348
p1414
V11
p1415
sV6658236
p1416
V22
p1417
sV6555409
p1418
V28
p1419
sV6642224
p1420
V0
sV6641757
p1421
V0
sV6554200
p1422
V0
sV6554205
p1423
V13
p1424
sV5954367
p1425
V18
p1426
sV5954360
p1427
V7
sV6533782
p1428
V137
p1429
sV6545856
p1430
V270
p1431
sV6545857
p1432
V2
sV6545851
p1433
V2
sV6677171
p1434
V20
p1435
sV6677170
p1436
V8
sV6545858
p1437
V0
sV6545859
p1438
V67
p1439
sV6544454
p1440
V0
sV6544456
p1441
V0
sV6615391
p1442
V0
sV6659010
p1443
V0
sV6553007
p1444
V125
p1445
sV6553002
p1446
V106
p1447
sV6593513
p1448
V240
p1449
sV6627211
p1450
V0
sV4696071
p1451
V37
p1452
sV6553261
p1453
V105
p1454
sV6553266
p1455
V690
p1456
sV6611252
p1457
V79
p1458
sV6644455
p1459
V96
p1460
sV6029318
p1461
V24
p1462
sV6606931
p1463
V9
sV6606930
p1464
V28
p1465
sV6606932
p1466
V3
sV6607228
p1467
V27
p1468
sV4696298
p1469
V4
sV6611438
p1470
V0
sV6607223
p1471
V0
sV6550003
p1472
V136
p1473
sV6594296
p1474
V288
p1475
sV6546742
p1476
V18
p1477
sV6546741
p1478
V24
p1479
sV6546740
p1480
V8
sV6549931
p1481
V122
p1482
sV6549242
p1483
V21
p1484
sV6542053
p1485
V6
sV6542052
p1486
V24
p1487
sV6542051
p1488
V15
p1489
sV6542050
p1490
V0
sV6542057
p1491
V12
p1492
sV6542056
p1493
V0
sV6542055
p1494
V23
p1495
sV6542054
p1496
V0
sV6542059
p1497
V0
sV6542058
p1498
V17
p1499
sV6227987
p1500
V27
p1501
sV6227981
p1502
V47
p1503
sV5954562
p1504
V4
sV6554851
p1505
V0
sV6556986
p1506
V9
sV6590199
p1507
V41
p1508
sV5954627
p1509
V8
sV6642059
p1510
V3
sV6228184
p1511
V60
p1512
sV6090786
p1513
V9
sV6090782
p1514
V10
p1515
sV6138769
p1516
V30
p1517
sV6589737
p1518
V8
sV6138762
p1519
V0
sV6657973
p1520
V0
sV6638139
p1521
V0
sV6639510
p1522
V0
sV6553857
p1523
V0
sV6553851
p1524
V1
sV6614708
p1525
V0
sV6614703
p1526
V11
p1527
sV5053767
p1528
V14
p1529
sV6620013
p1530
V63
p1531
sV6620018
p1532
V73
p1533
sV6610281
p1534
V45
p1535
sV6521632
p1536
V18
p1537
sV6599570
p1538
V0
sV6677342
p1539
V32
p1540
sV6677343
p1541
V31
p1542
sV6677340
p1543
V8
sV6677341
p1544
V35
p1545
sV6677344
p1546
V25
p1547
sV6677345
p1548
V30
p1549
sV6554699
p1550
V2
sV6317833
p1551
V0
sV6626949
p1552
V5
sV6552724
p1553
V37
p1554
sV6100447
p1555
V229
p1556
sV6552726
p1557
V18
p1558
sV6552727
p1559
V23
p1560
sV6552720
p1561
V21
p1562
sV6552721
p1563
V25
p1564
sV6552722
p1565
V24
p1566
sV6552723
p1567
V27
p1568
sV6552728
p1569
V19
p1570
sV6552729
p1571
V7
sV6557008
p1572
V8
sV4672174
p1573
V0
sV6610425
p1574
V89
p1575
sV6317953
p1576
V0
sV6554075
p1577
V0
sV6554070
p1578
V0
sV6636399
p1579
V1
sV6636390
p1580
V3
sV6100623
p1581
V115
p1582
sV6644864
p1583
V40
p1584
sV6644684
p1585
V61
p1586
sV6100628
p1587
V84
p1588
sV6609565
p1589
V265
p1590
sV6643663
p1591
V31
p1592
sV6519729
p1593
V169
p1594
sV6519728
p1595
V60
p1596
sV6656839
p1597
V25
p1598
sV6519721
p1599
V59
p1600
sV6519720
p1601
V39
p1602
sV6519723
p1603
V162
p1604
sV6519722
p1605
V163
p1606
sV6519725
p1607
V103
p1608
sV6519724
p1609
V61
p1610
sV6519727
p1611
V148
p1612
sV6519726
p1613
V42
p1614
sV6668869
p1615
V258
p1616
sV6668868
p1617
V83
p1618
sV6668867
p1619
V245
p1620
sV6668865
p1621
V259
p1622
sV6668864
p1623
V52
p1624
sV6668863
p1625
V59
p1626
sV6668862
p1627
V34
p1628
sV6668861
p1629
V29
p1630
sV6668860
p1631
V70
p1632
sV6556759
p1633
V57
p1634
sV6556758
p1635
V23
p1636
sV6589631
p1637
V0
sV6556751
p1638
V7
sV6556750
p1639
V8
sV6556753
p1640
V38
p1641
sV6556752
p1642
V34
p1643
sV6556755
p1644
V5
sV6556754
p1645
V39
p1646
sV6556757
p1647
V46
p1648
sV6556756
p1649
V64
p1650
sV6615615
p1651
V3
sV6640813
p1652
V0
sV6547378
p1653
V4
sV6656347
p1654
V0
sV6652849
p1655
V366
p1656
sV6547372
p1657
V4
sV5869682
p1658
V9
sV6627798
p1659
V50
p1660
sV6627799
p1661
V8
sV6627794
p1662
V16
p1663
sV6627795
p1664
V21
p1665
sV6627796
p1666
V48
p1667
sV6602626
p1668
V4
sV6091155
p1669
V11
p1670
sV6627791
p1671
V3
sV6627792
p1672
V8
sV6627849
p1673
V2
sV6228646
p1674
V0
sV6228642
p1675
V0
sV5158918
p1676
V0
sV5158919
p1677
V0
sV5158916
p1678
V0
sV5158917
p1679
V7
sV5158914
p1680
V14
p1681
sV5158915
p1682
V0
sV5158912
p1683
V3
sV5158913
p1684
V45
p1685
sV5158910
p1686
V6
sV5158911
p1687
V27
p1688
sV6628113
p1689
V0
sV5164222
p1690
V13
p1691
sV6626927
p1692
V0
sV5164226
p1693
V21
p1694
sV6638585
p1695
V8
sV6658033
p1696
V1
sV6546972
p1697
V136
p1698
sV6547080
p1699
V29
p1700
sV6641192
p1701
V1
sV6627892
p1702
V1
sV6657566
p1703
V0
sV6641998
p1704
V0
sV6641776
p1705
V0
sV6637207
p1706
V9
sV5954384
p1707
V0
sV6599567
p1708
V1
sV6599566
p1709
V1
sV6599565
p1710
V1
sV6599564
p1711
V1
sV6599563
p1712
V1
sV6599562
p1713
V1
sV6599561
p1714
V0
sV6599560
p1715
V1
sV6545839
p1716
V423
p1717
sV6599569
p1718
V1
sV6599568
p1719
V1
sV6521173
p1720
V9
sV6638458
p1721
V0
sV6615376
p1722
V2
sV6641599
p1723
V11
p1724
sV6554261
p1725
V0
sV6554265
p1726
V9
sV6553062
p1727
V98
p1728
sV6593535
p1729
V1106
p1730
sV6589888
p1731
V0
sV6589880
p1732
V0
sV6615114
p1733
V0
sV6643879
p1734
V105
p1735
sV6611272
p1736
V90
p1737
sV6611273
p1738
V95
p1739
sV6611270
p1740
V91
p1741
sV6611271
p1742
V93
p1743
sV6607028
p1744
V0
sV6607029
p1745
V7
sV6611274
p1746
V825
p1747
sV6611278
p1748
V172
p1749
sV6611279
p1750
V140
p1751
sV6607021
p1752
V4
sV6029332
p1753
V183
p1754
sV6029337
p1755
V158
p1756
sV6609862
p1757
V191
p1758
sV6554485
p1759
V23
p1760
sV6609682
p1761
V522
p1762
sV6554480
p1763
V3
sV6607248
p1764
V23
p1765
sV6607243
p1766
V17
p1767
sV6123698
p1768
V34
p1769
sV6552884
p1770
V27
p1771
sV6557619
p1772
V141
p1773
sV6552889
p1774
V55
p1775
sV6557616
p1776
V84
p1777
sV6123696
p1778
V2
sV6123697
p1779
V0
sV6557613
p1780
V92
p1781
sV6557612
p1782
V91
p1783
sV6557611
p1784
V143
p1785
sV6557610
p1786
V66
p1787
sV6408766
p1788
V0
sV6408761
p1789
V29
p1790
sV6549262
p1791
V38
p1792
sV6546769
p1793
V82
p1794
sV6627631
p1795
V0
sV6546763
p1796
V77
p1797
sV5954545
p1798
V7
sV6612509
p1799
V2
sV6542079
p1800
V0
sV6542078
p1801
V0
sV6554871
p1802
V13
p1803
sV6542075
p1804
V16
p1805
sV6542074
p1806
V3
sV6542077
p1807
V0
sV6542076
p1808
V3
sV6542071
p1809
V0
sV6542070
p1810
V20
p1811
sV6542073
p1812
V9
sV6652782
p1813
V323
p1814
sV6227619
p1815
V11
p1816
sV6609547
p1817
V71
p1818
sV6228437
p1819
V7
sV6519748
p1820
V91
p1821
sV5282968
p1822
V9
sV6611283
p1823
V332
p1824
sV6637290
p1825
V347
p1826
sV6637291
p1827
V290
p1828
sV6637292
p1829
V86
p1830
sV6637293
p1831
V235
p1832
sV6637294
p1833
V224
p1834
sV6637295
p1835
V0
sV6637296
p1836
V142
p1837
sV6637297
p1838
V12
p1839
sV6637298
p1840
V80
p1841
sV6637299
p1842
V83
p1843
sV6188565
p1844
V0
sV5954605
p1845
V0
sV6589714
p1846
V0
sV6589246
p1847
V185
p1848
sV6138741
p1849
V36
p1850
sV6589719
p1851
V4
sV6656578
p1852
V5
sV6547140
p1853
V8
sV6547413
p1854
V10
p1855
sV6638116
p1856
V45
p1857
sV6657955
p1858
V0
sV6653435
p1859
V6
sV6657958
p1860
V0
sV6653439
p1861
V23
p1862
sV6637838
p1863
V34
p1864
sV6599686
p1865
V1
sV6599687
p1866
V1
sV6599684
p1867
V1
sV6599685
p1868
V1
sV6599682
p1869
V0
sV6599683
p1870
V1
sV6599680
p1871
V1
sV6599681
p1872
V1
sV6599688
p1873
V0
sV6599689
p1874
V1
sV6641561
p1875
V1
sV6614764
p1876
V0
sV6647607
p1877
V118
p1878
sV6647600
p1879
V203
p1880
sV6620073
p1881
V83
p1882
sV6620078
p1883
V77
p1884
sV6628721
p1885
V7
sV6521616
p1886
V11
p1887
sV6521342
p1888
V7
sV6554677
p1889
V16
p1890
sV6578711
p1891
V462
p1892
sV6636407
p1893
V1
sV6317854
p1894
V0
sV6644119
p1895
V82
p1896
sV6552708
p1897
V0
sV6552709
p1898
V19
p1899
sV6552706
p1900
V33
p1901
sV6552707
p1902
V14
p1903
sV6552704
p1904
V5
sV6552705
p1905
V40
p1906
sV6552702
p1907
V30
p1908
sV6552703
p1909
V24
p1910
sV6552700
p1911
V3
sV6552701
p1912
V24
p1913
sV6556887
p1914
V7
sV6554018
p1915
V1
sV6610407
p1916
V126
p1917
sV6554013
p1918
V1
sV6644804
p1919
V57
p1920
sV6519743
p1921
V102
p1922
sV6519742
p1923
V167
p1924
sV6519741
p1925
V98
p1926
sV6519740
p1927
V60
p1928
sV6519747
p1929
V58
p1930
sV6519746
p1931
V166
p1932
sV6519745
p1933
V82
p1934
sV6519744
p1935
V77
p1936
sV6519749
p1937
V122
p1938
sV6643603
p1939
V130
p1940
sV6578865
p1941
V315
p1942
sV6607499
p1943
V5
sV4672156
p1944
V4
sV6556733
p1945
V20
p1946
sV6556732
p1947
V19
p1948
sV6556731
p1949
V20
p1950
sV6556730
p1951
V15
p1952
sV6556737
p1953
V9
sV6556736
p1954
V10
p1955
sV6556735
p1956
V10
p1957
sV6556734
p1958
V19
p1959
sV6556739
p1960
V20
p1961
sV6556738
p1962
V20
p1963
sV6552895
p1964
V37
p1965
sV6615639
p1966
V0
sV6615637
p1967
V0
sV6640835
p1968
V0
sV6557283
p1969
V5
sV6228081
p1970
V21
p1971
sV6656360
p1972
V8
sV6228089
p1973
V28
p1974
sV6652867
p1975
V96
p1976
sV6657025
p1977
V0
sV6123737
p1978
V0
sV6123736
p1979
V89
p1980
sV6123735
p1981
V36
p1982
sV6123734
p1983
V11
p1984
sV6123733
p1985
V0
sV6091136
p1986
V13
p1987
sV6123731
p1988
V40
p1989
sV6123730
p1990
V36
p1991
sV6123739
p1992
V4
sV6123738
p1993
V0
sV6657357
p1994
V38
p1995
sV5164206
p1996
V30
p1997
sV5164202
p1998
V11
p1999
sV6621034
p2000
V28
p2001
sV6621033
p2002
V20
p2003
sV6621032
p2004
V20
p2005
sV6628780
p2006
V27
p2007
sV6621030
p2008
V6
sV6547311
p2009
V15
p2010
sV6547315
p2011
V18
p2012
sV6658019
p2013
V0
sV6628789
p2014
V40
p2015
sV6642408
p2016
V2
sV6642157
p2017
V0
sV6657234
p2018
V0
sV6641178
p2019
V0
sV6658278
p2020
V0
sV6268683
p2021
V28
p2022
sV6268688
p2023
V40
p2024
sV6589389
p2025
V40
p2026
sV6589385
p2027
V17
p2028
sV6589381
p2029
V12
p2030
sV5721506
p2031
V19
p2032
sV6656731
p2033
V14
p2034
sV5721502
p2035
V27
p2036
sV6641712
p2037
V0
sV6549271
p2038
V26
p2039
sV6554800
p2040
V2
sV6599549
p2041
V1
sV6599548
p2042
V1
sV6545815
p2043
V440
p2044
sV6630567
p2045
V802
p2046
sV5973326
p2047
V76
p2048
sV6521409
p2049
V6
sV6555264
p2050
V40
p2051
sV6555265
p2052
V55
p2053
sV6555266
p2054
V20
p2055
sV6555267
p2056
V14
p2057
sV6555260
p2058
V21
p2059
sV6555261
p2060
V19
p2061
sV6555262
p2062
V6
sV6555263
p2063
V21
p2064
sV6615352
p2065
V0
sV6555268
p2066
V8
sV6555269
p2067
V4
sV6544496
p2068
V166
p2069
sV6554245
p2070
V10
p2071
sV6554240
p2072
V0
sV6615136
p2073
V18
p2074
sV6615132
p2075
V61
p2076
sV6553043
p2077
V17
p2078
sV6553047
p2079
V0
sV6593557
p2080
V45
p2081
sV6553175
p2082
V52
p2083
sV6123732
p2084
V0
sV6620993
p2085
V47
p2086
sV6620992
p2087
V48
p2088
sV6620991
p2089
V36
p2090
sV6620990
p2091
V44
p2092
sV6620997
p2093
V38
p2094
sV6620999
p2095
V0
sV6620998
p2096
V40
p2097
sV6644490
p2098
V131
p2099
sV6522189
p2100
V30
p2101
sV6644322
p2102
V126
p2103
sV6544437
p2104
V3
sV6557639
p2105
V24
p2106
sV6557638
p2107
V23
p2108
sV6557631
p2109
V95
p2110
sV6557630
p2111
V92
p2112
sV6557633
p2113
V75
p2114
sV6542104
p2115
V0
sV6557635
p2116
V50
p2117
sV6557634
p2118
V63
p2119
sV6557637
p2120
V23
p2121
sV6557636
p2122
V25
p2123
sV6227806
p2124
V29
p2125
sV6544431
p2126
V60
p2127
sV6623754
p2128
V12
p2129
sV6623755
p2130
V22
p2131
sV6607004
p2132
V0
sV6623757
p2133
V0
sV6623751
p2134
V2
sV6623752
p2135
V3
sV6623753
p2136
V0
sV6623758
p2137
V0
sV6623759
p2138
V2
sV6607009
p2139
V0
sV6549209
p2140
V21
p2141
sV6549208
p2142
V53
p2143
sV6549203
p2144
V74
p2145
sV6554812
p2146
V0
sV6626693
p2147
V0
sV6227946
p2148
V14
p2149
sV6551854
p2150
V68
p2151
sV6594126
p2152
V238
p2153
sV6617243
p2154
V68
p2155
sV6589260
p2156
V52
p2157
sV6551804
p2158
V8
sV6551800
p2159
V30
p2160
sV6656557
p2161
V0
sV6551808
p2162
V111
p2163
sV6657938
p2164
V0
sV6637811
p2165
V5
sV6571511
p2166
V49
p2167
sV6553890
p2168
V25
p2169
sV6614747
p2170
V0
sV6553895
p2171
V11
p2172
sV6614743
p2173
V4
sV6647628
p2174
V162
p2175
sV4412523
p2176
V21
p2177
sV6647621
p2178
V204
p2179
sV6620058
p2180
V72
p2181
sV6620053
p2182
V75
p2183
sV6521360
p2184
V22
p2185
sV6628707
p2186
V9
sV6521369
p2187
V24
p2188
sV6590048
p2189
V24
p2190
sV6554656
p2191
V0
sV6626907
p2192
V89
p2193
sV6317873
p2194
V3
sV6554380
p2195
V11
p2196
sV6554385
p2197
V8
sV6090987
p2198
V20
p2199
sV6555383
p2200
V31
p2201
sV6555382
p2202
V14
p2203
sV6555381
p2204
V29
p2205
sV6555380
p2206
V34
p2207
sV6555387
p2208
V0
sV6555386
p2209
V0
sV6555385
p2210
V29
p2211
sV6555384
p2212
V20
p2213
sV6552760
p2214
V22
p2215
sV6552761
p2216
V18
p2217
sV6552762
p2218
V25
p2219
sV6552763
p2220
V21
p2221
sV6552764
p2222
V21
p2223
sV6552765
p2224
V113
p2225
sV6554033
p2226
V6
sV6554030
p2227
V0
sV6554037
p2228
V5
sV6610464
p2229
V54
p2230
sV6644395
p2231
V116
p2232
sV6589705
p2233
V4
sV6644828
p2234
V49
p2235
sV6078368
p2236
V1
sV6677384
p2237
V15
p2238
sV6677382
p2239
V32
p2240
sV6677383
p2241
V14
p2242
sV6677380
p2243
V35
p2244
sV6677381
p2245
V33
p2246
sV6609529
p2247
V438
p2248
sV6519769
p2249
V162
p2250
sV6519768
p2251
V73
p2252
sV6519765
p2253
V62
p2254
sV5241697
p2255
V0
sV6519767
p2256
V75
p2257
sV6519766
p2258
V81
p2259
sV6519761
p2260
V67
p2261
sV5241693
p2262
V56
p2263
sV6519763
p2264
V64
p2265
sV6519762
p2266
V60
p2267
sV6317650
p2268
V3
sV4672138
p2269
V19
p2270
sV6556865
p2271
V6
sV6627425
p2272
V4
sV6640851
p2273
V18
p2274
sV6029278
p2275
V4
sV6643626
p2276
V119
p2277
sV6228068
p2278
V25
p2279
sV6610171
p2280
V30
p2281
sV6228060
p2282
V31
p2283
sV6123711
p2284
V44
p2285
sV6123710
p2286
V0
sV6123713
p2287
V38
p2288
sV6123712
p2289
V30
p2290
sV6091119
p2291
V0
sV6123714
p2292
V19
p2293
sV6123717
p2294
V19
p2295
sV6123716
p2296
V37
p2297
sV6123719
p2298
V46
p2299
sV6123718
p2300
V0
sV6091110
p2301
V1
sV6201483
p2302
V0
sV6558877
p2303
V499
p2304
sV6593818
p2305
V13
p2306
sV6558879
p2307
V1102
p2308
sV6656304
p2309
V0
sV6547335
p2310
V6
sV6658071
p2311
V0
sV6638098
p2312
V0
sV6546429
p2313
V14
p2314
sV6546427
p2315
V0
sV6546422
p2316
V125
p2317
sV6637310
p2318
V160
p2319
sV6637312
p2320
V140
p2321
sV5158952
p2322
V32
p2323
sV5158950
p2324
V0
sV5158951
p2325
V42
p2326
sV6642173
p2327
V41
p2328
sV6642281
p2329
V11
p2330
sV5721522
p2331
V51
p2332
sV5721526
p2333
V50
p2334
sV6553210
p2335
V22
p2336
sV6490110
p2337
V1
sV6533768
p2338
V160
p2339
sV6589100
p2340
V15
p2341
sV6078550
p2342
V0
sV5954673
p2343
V0
sV6638893
p2344
V0
sV6641152
p2345
V0
sV6615331
p2346
V0
sV6533812
p2347
V203
p2348
sV6521427
p2349
V22
p2350
sV6644708
p2351
V33
p2352
sV6615485
p2353
V0
sV6545695
p2354
V478
p2355
sV6644204
p2356
V92
p2357
sV6614824
p2358
V0
sV6614821
p2359
V0
sV5241597
p2360
V13
p2361
sV6614829
p2362
V17
p2363
sV5241593
p2364
V64
p2365
sV6557653
p2366
V65
p2367
sV6557652
p2368
V50
p2369
sV6557651
p2370
V20
p2371
sV6557650
p2372
V83
p2373
sV6557657
p2374
V65
p2375
sV6557656
p2376
V143
p2377
sV6630965
p2378
V50
p2379
sV6557654
p2380
V148
p2381
sV6549192
p2382
V121
p2383
sV6557658
p2384
V147
p2385
sV6550060
p2386
V20
p2387
sV6227822
p2388
V17
p2389
sV6607060
p2390
V11
p2391
sV6607065
p2392
V9
sV6623778
p2393
V0
sV6623779
p2394
V3
sV6623776
p2395
V4
sV6623777
p2396
V1
sV6623774
p2397
V7
sV6623775
p2398
V6
sV6623772
p2399
V3
sV6623773
p2400
V5
sV6623770
p2401
V30
p2402
sV6623771
p2403
V15
p2404
sV6627670
p2405
V23
p2406
sV5954588
p2407
V0
sV6554830
p2408
V0
sV6228479
p2409
V7
sV6607289
p2410
V1
sV6188524
p2411
V28
p2412
sV6594109
p2413
V171
p2414
sV4696185
p2415
V4
sV4696188
p2416
V79
p2417
sV5869708
p2418
V4
sV6549224
p2419
V77
p2420
sV6549227
p2421
V41
p2422
sV6653219
p2423
V12
p2424
sV6549221
p2425
V98
p2426
sV6549220
p2427
V101
p2428
sV6549223
p2429
V193
p2430
sV6549222
p2431
V173
p2432
sV6549229
p2433
V37
p2434
sV6549228
p2435
V36
p2436
sV6547100
p2437
V30
p2438
sV6547108
p2439
V17
p2440
sV6599312
p2441
V50
p2442
sV6599317
p2443
V5
sV6599318
p2444
V60
p2445
sV6551827
p2446
V7
sV6551824
p2447
V48
p2448
sV6551825
p2449
V24
p2450
sV6228299
p2451
V0
sV6551820
p2452
V86
p2453
sV6657912
p2454
V0
sV6638155
p2455
V6
sV6637879
p2456
V6
sV6642348
p2457
V0
sV6642342
p2458
V1
sV6546856
p2459
V16
p2460
sV6546859
p2461
V15
p2462
sV6571531
p2463
V143
p2464
sV4412507
p2465
V20
p2466
sV6628768
p2467
V67
p2468
sV6628769
p2469
V122
p2470
sV6521306
p2471
V28
p2472
sV6628760
p2473
V0
sV6628761
p2474
V27
p2475
sV6628762
p2476
V109
p2477
sV6628763
p2478
V25
p2479
sV6628764
p2480
V52
p2481
sV6628765
p2482
V122
p2483
sV6628766
p2484
V96
p2485
sV6628767
p2486
V140
p2487
sV6590066
p2488
V3
sV6554635
p2489
V11
p2490
sV6641838
p2491
V24
p2492
sV6610193
p2493
V283
p2494
sV6552742
p2495
V27
p2496
sV6552743
p2497
V27
p2498
sV6552740
p2499
V45
p2500
sV6552741
p2501
V24
p2502
sV6552746
p2503
V23
p2504
sV6552747
p2505
V17
p2506
sV6552744
p2507
V15
p2508
sV6552745
p2509
V20
p2510
sV6552748
p2511
V23
p2512
sV6552749
p2513
V18
p2514
sV6610443
p2515
V44
p2516
sV6623563
p2517
V57
p2518
sV6623562
p2519
V27
p2520
sV6623567
p2521
V53
p2522
sV6623566
p2523
V12
p2524
sV6623565
p2525
V21
p2526
sV6623564
p2527
V13
p2528
sV6550292
p2529
V184
p2530
sV6550293
p2531
V897
p2532
sV6550290
p2533
V233
p2534
sV6550291
p2535
V282
p2536
sV6550296
p2537
V280
p2538
sV6550297
p2539
V265
p2540
sV6550294
p2541
V336
p2542
sV6550295
p2543
V305
p2544
sV6078342
p2545
V0
sV6100684
p2546
V33
p2547
sV6100688
p2548
V63
p2549
sV6578823
p2550
V751
p2551
sV6589906
p2552
V0
sV6589900
p2553
V0
sV4672111
p2554
V32
p2555
sV6599080
p2556
V98
p2557
sV6317799
p2558
V5
sV6599085
p2559
V96
p2560
sV6556843
p2561
V7
sV6644515
p2562
V76
p2563
sV6615674
p2564
V0
sV6627442
p2565
V0
sV6659059
p2566
V21
p2567
sV6029257
p2568
V196
p2569
sV6609502
p2570
V460
p2571
sV6228593
p2572
V1
sV6228046
p2573
V1
sV6579266
p2574
V174
p2575
sV6123771
p2576
V0
sV6123770
p2577
V0
sV6090668
p2578
V17
p2579
sV6651952
p2580
V2
sV6205654
p2581
V17
p2582
sV6546627
p2583
V64
p2584
sV5954444
p2585
V0
sV6656605
p2586
V48
p2587
sV6629406
p2588
V1
sV6629407
p2589
V0
sV6626719
p2590
V0
sV6656986
p2591
V0
sV6656989
p2592
V0
sV6656988
p2593
V0
sV6629408
p2594
V0
sV6629409
p2595
V1
sV6626710
p2596
V0
sV6546996
p2597
V81
p2598
sV6658059
p2599
V1
sV6546445
p2600
V1
sV6642114
p2601
V5
sV6656188
p2602
V0
sV5282990
p2603
V5
sV5282992
p2604
V10
p2605
sV5282995
p2606
V8
sV6188640
p2607
V0
sV6652975
p2608
V788
p2609
sV5721546
p2610
V0
sV6533707
p2611
V187
p2612
sV6078578
p2613
V14
p2614
sV6205718
p2615
V40
p2616
sV6205712
p2617
V34
p2618
sV6657580
p2619
V0
sV6641139
p2620
V0
sV5053648
p2621
V18
p2622
sV6022460
p2623
V144
p2624
sV6022464
p2625
V70
p2626
sV6521441
p2627
V3
sV6599113
p2628
V15
p2629
sV6643856
p2630
V57
p2631
sV6522141
p2632
V53
p2633
sV6554174
p2634
V9
sV6597927
p2635
V217
p2636
sV6597929
p2637
V52
p2638
sV6597928
p2639
V13
p2640
sV6554179
p2641
V1
sV6614805
p2642
V0
sV6614800
p2643
V0
sV6644720
p2644
V54
p2645
sV6643987
p2646
V121
p2647
sV6552829
p2648
V172
p2649
sV6552825
p2650
V125
p2651
sV6552821
p2652
V170
p2653
sV4672300
p2654
V8
sV6550085
p2655
V46
p2656
sV6227844
p2657
V14
p2658
sV6607046
p2659
V0
sV6519750
p2660
V85
p2661
sV5241685
p2662
V0
sV6227900
p2663
V3
sV6553195
p2664
V66
p2665
sV6553191
p2666
V10
p2667
sV5241689
p2668
V0
sV6602742
p2669
V36
p2670
sV6651893
p2671
V0
sV6652011
p2672
V0
sV6656515
p2673
V2
sV6599338
p2674
V59
p2675
sV6228904
p2676
V0
sV6599330
p2677
V58
p2678
sV6228907
p2679
V0
sV6551845
p2680
V5
sV6551846
p2681
V175
p2682
sV5053819
p2683
V18
p2684
sV4079898
p2685
V39
p2686
sV5721483
p2687
V81
p2688
sV6642326
p2689
V0
sV6546871
p2690
V7
sV6546878
p2691
V11
p2692
sV6542141
p2693
V0
sV6542140
p2694
V1
sV6542143
p2695
V26
p2696
sV6542142
p2697
V23
p2698
sV6542144
p2699
V27
p2700
sV6628741
p2701
V7
sV6628746
p2702
V6
sV6521324
p2703
V9
sV6637851
p2704
V36
p2705
sV6590007
p2706
V3
sV6641853
p2707
V1
sV6641676
p2708
V0
sV6554346
p2709
V5
sV6554340
p2710
V26
p2711
sV6554614
p2712
V32
p2713
sV6593295
p2714
V96
p2715
sV6143614
p2716
V37
p2717
sV6610317
p2718
V84
p2719
sV6521584
p2720
V15
p2721
sV6658690
p2722
V0
sV6599609
p2723
V1
sV6578809
p2724
V795
p2725
sV6589922
p2726
V0
sV6589928
p2727
V0
sV6599600
p2728
V1
sV6645249
p2729
V47
p2730
sV6607380
p2731
V6
sV6611379
p2732
V40
p2733
sV6611378
p2734
V10
p2735
sV6615694
p2736
V0
sV6611372
p2737
V28
p2738
sV6611371
p2739
V31
p2740
sV6611370
p2741
V0
sV6611377
p2742
V29
p2743
sV6611376
p2744
V0
sV6611375
p2745
V79
p2746
sV6611374
p2747
V71
p2748
sV6029238
p2749
V168
p2750
sV6627462
p2751
V0
sV6546706
p2752
V54
p2753
sV6123755
p2754
V0
sV6123754
p2755
V6
sV6123757
p2756
V0
sV6123756
p2757
V28
p2758
sV6123751
p2759
V23
p2760
sV6123750
p2761
V31
p2762
sV6123753
p2763
V0
sV6123752
p2764
V16
p2765
sV6123758
p2766
V45
p2767
sV6555360
p2768
V12
p2769
sV6547801
p2770
V19
p2771
sV6557196
p2772
V13
p2773
sV6556821
p2774
V4
sV6547800
p2775
V23
p2776
sV6547807
p2777
V17
p2778
sV6547775
p2779
V97
p2780
sV6546605
p2781
V0
sV6657345
p2782
V0
sV6627914
p2783
V1
sV6627915
p2784
V0
sV6651976
p2785
V2
sV6547771
p2786
V62
p2787
sV6557448
p2788
V9
sV6557338
p2789
V4
sV6627913
p2790
V0
sV6547773
p2791
V89
p2792
sV5954465
p2793
V3
sV6623756
p2794
V2
sV6317518
p2795
V6
sV6613809
p2796
V0
sV6626737
p2797
V0
sV6546465
p2798
V0
sV6658704
p2799
V0
sV6642138
p2800
V3
sV6658864
p2801
V0
sV6090640
p2802
V1
sV6201453
p2803
V104
p2804
sV6090645
p2805
V12
p2806
sV6201459
p2807
V51
p2808
sV6201480
p2809
V19
p2810
sV6627612
p2811
V0
sV6589329
p2812
V0
sV6589325
p2813
V103
p2814
sV6589321
p2815
V138
p2816
sV6599295
p2817
V73
p2818
sV6599294
p2819
V0
sV6652957
p2820
V1583
p2821
sV5721566
p2822
V0
sV5721562
p2823
V0
sV6645021
p2824
V76
p2825
sV6657078
p2826
V0
sV6533723
p2827
V177
p2828
sV6205737
p2829
V13
p2830
sV6656704
p2831
V27
p2832
sV6205730
p2833
V12
p2834
sV6613848
p2835
V1
sV6531987
p2836
V91
p2837
sV6531986
p2838
V96
p2839
sV6531985
p2840
V98
p2841
sV6531984
p2842
V90
p2843
sV6531983
p2844
V81
p2845
sV6613842
p2846
V1
sV6531981
p2847
V86
p2848
sV6531980
p2849
V90
p2850
sV6100531
p2851
V0
sV6100536
p2852
V30
p2853
sV6641113
p2854
V0
sV6641446
p2855
V1
sV5053661
p2856
V27
p2857
sV6611501
p2858
V49
p2859
sV6100644
p2860
V28
p2861
sV6533857
p2862
V51
p2863
sV6544387
p2864
V196
p2865
sV6554769
p2866
V2
sV6545654
p2867
V137
p2868
sV6091127
p2869
V17
p2870
sV6521469
p2871
V39
p2872
sV6522161
p2873
V41
p2874
sV6554150
p2875
V26
p2876
sV6597949
p2877
V41
p2878
sV6597948
p2879
V87
p2880
sV6554155
p2881
V2
sV6597943
p2882
V44
p2883
sV6597942
p2884
V177
p2885
sV6597941
p2886
V139
p2887
sV6597940
p2888
V50
p2889
sV6597947
p2890
V43
p2891
sV6597946
p2892
V354
p2893
sV6554401
p2894
V0
sV6597944
p2895
V58
p2896
sV6618154
p2897
V76
p2898
sV6618155
p2899
V161
p2900
sV6618156
p2901
V120
p2902
sV6618157
p2903
V66
p2904
sV6618150
p2905
V166
p2906
sV6618151
p2907
V80
p2908
sV6618152
p2909
V64
p2910
sV6618153
p2911
V136
p2912
sV6614862
p2913
V46
p2914
sV6618159
p2915
V187
p2916
sV6614866
p2917
V15
p2918
sV6615191
p2919
V0
sV6615197
p2920
V0
sV6644745
p2921
V49
p2922
sV6552809
p2923
V85
p2924
sV6552801
p2925
V82
p2926
sV6552806
p2927
V4
sV6227860
p2928
V13
p2929
sV6658883
p2930
V0
sV6227868
p2931
V4
sV6658888
p2932
V0
sV6637969
p2933
V3
sV6609718
p2934
V268
p2935
sV6643975
p2936
V96
p2937
sV6640930
p2938
V27
p2939
sV6549158
p2940
V117
p2941
sV6656282
p2942
V0
sV6627104
p2943
V0
sV6551862
p2944
V132
p2945
sV5158870
p2946
V0
sV6227789
p2947
V0
sV5158872
p2948
V0
sV6551866
p2949
V73
p2950
sV5158874
p2951
V16
p2952
sV5158877
p2953
V0
sV5158876
p2954
V16
p2955
sV5158879
p2956
V35
p2957
sV5158878
p2958
V11
p2959
sV6609844
p2960
V308
p2961
sV6611466
p2962
V0
sV6658393
p2963
V0
sV6571571
p2964
V128
p2965
sV6571576
p2966
V107
p2967
sV6546811
p2968
V46
p2969
sV6546817
p2970
V39
p2971
sV6138830
p2972
V3
sV6542129
p2973
V18
p2974
sV6542128
p2975
V14
p2976
sV6589798
p2977
V18
p2978
sV6138837
p2979
V7
sV6542123
p2980
V13
p2981
sV6542122
p2982
V0
sV6542121
p2983
V0
sV6542120
p2984
V20
p2985
sV6542127
p2986
V0
sV6542126
p2987
V21
p2988
sV6542125
p2989
V7
sV6589792
p2990
V2
sV6638262
p2991
V15
p2992
sV6658573
p2993
V0
sV6637522
p2994
V54
p2995
sV6614105
p2996
V1
sV6552785
p2997
V89
p2998
sV6552781
p2999
V98
p3000
sV6578796
p3001
V366
p3002
sV6090923
p3003
V8
sV6552789
p3004
V49
p3005
sV6640656
p3006
V34
p3007
sV6205690
p3008
V16
p3009
sV6205696
p3010
V20
p3011
sV6521872
p3012
V54
p3013
sV6610371
p3014
V432
p3015
sV6644889
p3016
V37
p3017
sV6599714
p3018
V1
sV6599715
p3019
V1
sV6599716
p3020
V0
sV6599717
p3021
V0
sV6599710
p3022
V1
sV6599711
p3023
V1
sV6599712
p3024
V1
sV6599713
p3025
V0
sV6552904
p3026
V4
sV6551780
p3027
V22
p3028
sV6551784
p3029
V125
p3030
sV6550258
p3031
V194
p3032
sV6648130
p3033
V89
p3034
sV6589941
p3035
V0
sV6615507
p3036
V5
sV6615501
p3037
V31
p3038
sV6644084
p3039
V29
p3040
sV6554091
p3041
V0
sV6610482
p3042
V101
p3043
sV6554095
p3044
V20
p3045
sV6611427
p3046
V3
sV6611426
p3047
V11
p3048
sV6611357
p3049
V72
p3050
sV6611356
p3051
V71
p3052
sV6611423
p3053
V20
p3054
sV6611422
p3055
V49
p3056
sV6611421
p3057
V20
p3058
sV6611420
p3059
V34
p3060
sV6607365
p3061
V7
sV6611359
p3062
V0
sV6611358
p3063
V72
p3064
sV6611429
p3065
V5
sV6607360
p3066
V26
p3067
sV6643687
p3068
V118
p3069
sV5241637
p3070
V0
sV5241633
p3071
V0
sV6554335
p3072
V0
sV6317756
p3073
V1
sV6546660
p3074
V14
p3075
sV6651915
p3076
V10
p3077
sV5954409
p3078
V2
sV6626756
p3079
V0
sV5954402
p3080
V6
sV6228003
p3081
V0
sV6546488
p3082
V20
p3083
sV6546489
p3084
V61
p3085
sV6546485
p3086
V4
sV6546486
p3087
V93
p3088
sV6546487
p3089
V0
sV6201471
p3090
V82
p3091
sV6201474
p3092
V23
p3093
sV6201477
p3094
V34
p3095
sV5164286
p3096
V41
p3097
sV5164282
p3098
V15
p3099
sV6612448
p3100
V5
sV6612449
p3101
V0
sV6589304
p3102
V61
p3103
sV6589301
p3104
V65
p3105
sV6612440
p3106
V0
sV6612441
p3107
V12
p3108
sV6612442
p3109
V0
sV6612443
p3110
V0
sV6612444
p3111
V9
sV6612445
p3112
V0
sV6612446
p3113
V0
sV6612447
p3114
V0
sV6547285
p3115
V23
p3116
sV6188604
p3117
V6
sV6652939
p3118
V660
p3119
sV6599279
p3120
V75
p3121
sV6599274
p3122
V73
p3123
sV6657010
p3124
V0
sV6657011
p3125
V0
sV6657015
p3126
V0
sV6657016
p3127
V0
sV6657017
p3128
V0
sV6657018
p3129
V0
sV6657019
p3130
V0
sV6589160
p3131
V23
p3132
sV6637959
p3133
V0
sV4672084
p3134
V38
p3135
sV6547759
p3136
V49
p3137
sV6656722
p3138
V6
sV6627938
p3139
V0
sV6627939
p3140
V1
sV6627934
p3141
V1
sV6627935
p3142
V2
sV6627936
p3143
V2
sV6627937
p3144
V1
sV6627930
p3145
V0
sV6627931
p3146
V2
sV6627932
p3147
V0
sV6627933
p3148
V0
sV6638384
p3149
V13
p3150
sV6579301
p3151
V286
p3152
sV6641469
p3153
V23
p3154
sV6658184
p3155
V0
sV6641799
p3156
V9
sV6545677
p3157
V257
p3158
sV6641548
p3159
V2
sV6593623
p3160
V50
p3161
sV6533872
p3162
V150
p3163
sV6545901
p3164
V2
sV6545908
p3165
V3
sV6545909
p3166
V179
p3167
sV6614842
p3168
V0
sV6614846
p3169
V48
p3170
sV6554420
p3171
V5
sV6554130
p3172
V0
sV6554135
p3173
V5
sV6554426
p3174
V0
sV6644768
p3175
V59
p3176
sV6579152
p3177
V30
p3178
sV6644949
p3179
V51
p3180
sV6609484
p3181
V289
p3182
sV6644215
p3183
V58
p3184
sV6227884
p3185
V10
p3186
sV6544506
p3187
V0
sV6544501
p3188
V0
sV6644131
p3189
V75
p3190
sV6609736
p3191
V437
p3192
sV6255251
p3193
V20
p3194
sV6640915
p3195
V22
p3196
sV6552861
p3197
V62
p3198
sV6552865
p3199
V143
p3200
sV6552869
p3201
V23
p3202
sV6627343
p3203
V0
sV6549174
p3204
V118
p3205
sV6637943
p3206
V0
sV6607197
p3207
V0
sV6549280
p3208
V120
p3209
sV6549289
p3210
V106
p3211
sV6627699
p3212
V1
sV6627165
p3213
V0
sV6551888
p3214
V91
p3215
sV6551889
p3216
V54
p3217
sV6551884
p3218
V133
p3219
sV6551885
p3220
V227
p3221
sV6551886
p3222
V154
p3223
sV6551887
p3224
V105
p3225
sV6551880
p3226
V67
p3227
sV6551881
p3228
V532
p3229
sV6551882
p3230
V59
p3231
sV6551883
p3232
V67
p3233
sV6078542
p3234
V1
sV6546835
p3235
V7
sV6571596
p3236
V32
p3237
sV6090731
p3238
V5
sV6571592
p3239
V26
p3240
sV6542105
p3241
V8
sV6571499
p3242
V69
p3243
sV6542107
p3244
V15
p3245
sV6542106
p3246
V3
sV6542101
p3247
V7
sV6542100
p3248
V4
sV6542103
p3249
V18
p3250
sV6542102
p3251
V19
p3252
sV6542109
p3253
V15
p3254
sV6542108
p3255
V20
p3256
sV6138812
p3257
V14
p3258
sV6138811
p3259
V0
sV6138815
p3260
V18
p3261
sV6628786
p3262
V51
p3263
sV6628784
p3264
V28
p3265
sV6628785
p3266
V34
p3267
sV6628782
p3268
V32
p3269
sV6628783
p3270
V23
p3271
sV6621031
p3272
V18
p3273
sV6628781
p3274
V5
sV6638714
p3275
V0
sV6628788
p3276
V18
p3277
sV6638241
p3278
V6
sV6637893
p3279
V2
sV6637548
p3280
V31
p3281
sV6637543
p3282
V8
sV6641320
p3283
V0
sV6614125
p3284
V0
sV6641636
p3285
V0
sV6078494
p3286
V7
sV6090902
p3287
V0
sV6521812
p3288
V5
sV6630577
p3289
V2646
p3290
sV6554300
p3291
V5
sV6553905
p3292
V0
sV6554305
p3293
V4
sV6579178
p3294
V222
p3295
sV6553900
p3296
V4
sV6521725
p3297
V16
p3298
sV6589963
p3299
V0
sV6610353
p3300
V73
p3301
sV6611401
p3302
V62
p3303
sV6611400
p3304
V63
p3305
sV6611403
p3306
V59
p3307
sV6611402
p3308
V76
p3309
sV6611405
p3310
V20
p3311
sV6611404
p3312
V66
p3313
sV6611407
p3314
V56
p3315
sV6611406
p3316
V69
p3317
sV6611409
p3318
V27
p3319
sV6611408
p3320
V47
p3321
sV6607344
p3322
V11
p3323
sV6627865
p3324
V3
sV6547021
p3325
V35
p3326
sV5241617
p3327
V0
sV5241613
p3328
V0
sV5241610
p3329
V51
p3330
sV4672282
p3331
V21
p3332
sV6557151
p3333
V3
sV6550102
p3334
V441
p3335
sV6651937
p3336
V3
sV6546649
p3337
V65
p3338
sV6557481
p3339
V2
sV6627578
p3340
V0
sV5954424
p3341
V3
sV6557374
p3342
V5
sV6552769
p3343
V112
p3344
sV6228571
p3345
V30
p3346
sV6091086
p3347
V0
sV6188448
p3348
V22
p3349
sV5282977
p3350
V6
sV5282974
p3351
V2
sV5282975
p3352
V20
p3353
sV5282972
p3354
V1
sV5282973
p3355
V15
p3356
sV5282970
p3357
V12
p3358
sV5282971
p3359
V6
sV6555389
p3360
V29
p3361
sV5282978
p3362
V12
p3363
sV6599134
p3364
V80
p3365
sV6090687
p3366
V3
sV6555388
p3367
V8
sV6599130
p3368
V78
p3369
sV6640630
p3370
V17
p3371
sV6599138
p3372
V77
p3373
sV6589361
p3374
V53
p3375
sV6589365
p3376
V42
p3377
sV6589369
p3378
V6
sV6599259
p3379
V94
p3380
sV6599254
p3381
V95
p3382
sV6657030
p3383
V0
sV6496071
p3384
V28
p3385
sV6627916
p3386
V2
sV6547774
p3387
V97
p3388
sV6547777
p3389
V95
p3390
sV6547776
p3391
V86
p3392
sV6627912
p3393
V2
sV6547770
p3394
V35
p3395
sV6627910
p3396
V0
sV6547772
p3397
V66
p3398
sV6589186
p3399
V0
sV6547779
p3400
V36
p3401
sV6547778
p3402
V89
p3403
sV6627918
p3404
V2
sV6656749
p3405
V13
p3406
sV6656740
p3407
V14
p3408
sV5053622
p3409
V40
p3410
sV6657292
p3411
V3
sV6612462
p3412
V0
sV6612463
p3413
V11
p3414
sV6612460
p3415
V23
p3416
sV6612461
p3417
V38
p3418
sV6612466
p3419
V10
p3420
sV6612467
p3421
V8
sV6612464
p3422
V16
p3423
sV6612465
p3424
V0
sV6612468
p3425
V0
sV6612469
p3426
V2
sV6642536
p3427
V4
sV6545612
p3428
V0
sV6545618
p3429
V16
p3430
sV6620982
p3431
V45
p3432
sV6593645
p3433
V92
p3434
sV6620988
p3435
V43
p3436
sV6640750
p3437
V0
sV6554115
p3438
V8
sV6554440
p3439
V8
sV6554110
p3440
V15
p3441
sV6554445
p3442
V13
p3443
sV6644924
p3444
V45
p3445
sV6544521
p3446
V3
sV6544526
p3447
V69
p3448
sV6522127
p3449
V71
p3450
sV6549112
p3451
V31
p3452
sV6615779
p3453
V3
sV6615773
p3454
V9
sV6549119
p3455
V104
p3456
sV6615770
p3457
V0
sV6519764
p3458
V67
p3459
sV6627360
p3460
V0
sV6611424
p3461
V43
p3462
sV6609520
p3463
V384
p3464
sV6519760
p3465
V110
p3466
sV6627143
p3467
V0
sV6545892
p3468
V0
sV6609808
p3469
V482
p3470
sV6546585
p3471
V0
sV6546584
p3472
V1
sV6546587
p3473
V0
sV6546586
p3474
V0
sV6546581
p3475
V0
sV6546580
p3476
V0
sV6546583
p3477
V0
sV6546582
p3478
V0
sV6571606
p3479
V176
p3480
sV6546589
p3481
V0
sV6546588
p3482
V0
sV6656244
p3483
V3
sV6658353
p3484
V0
sV6657199
p3485
V1
sV6549802
p3486
V50
p3487
sV6549808
p3488
V84
p3489
sV6590350
p3490
V340
p3491
sV6547180
p3492
V4
sV6227743
p3493
V15
p3494
sV6621011
p3495
V47
p3496
sV6621010
p3497
V48
p3498
sV6621013
p3499
V47
p3500
sV6621012
p3501
V46
p3502
sV6621015
p3503
V43
p3504
sV6621014
p3505
V44
p3506
sV6621017
p3507
V42
p3508
sV6621016
p3509
V46
p3510
sV6621019
p3511
V47
p3512
sV6621018
p3513
V48
p3514
sV6638227
p3515
V10
p3516
sV6637566
p3517
V2
sV5721398
p3518
V0
sV5721394
p3519
V0
sV5721427
p3520
V0
sV5721420
p3521
V13
p3522
sV5721390
p3523
V48
p3524
sV6090969
p3525
V9
sV6589421
p3526
V151
p3527
sV6589649
p3528
V4
sV5954289
p3529
V4
sV3942782
p3530
V27
p3531
sV3942786
p3532
V33
p3533
sV5821287
p3534
V37
p3535
sV6521297
p3536
V8
sV6521292
p3537
V150
p3538
sV6551748
p3539
V88
p3540
sV6551744
p3541
V23
p3542
sV6599679
p3543
V1
sV6551740
p3544
V44
p3545
sV6641614
p3546
V1
sV6641341
p3547
V0
sV6599678
p3548
V1
sV6610114
p3549
V82
p3550
sV6553924
p3551
V4
sV6645237
p3552
V41
p3553
sV6579116
p3554
V3
sV6554325
p3555
V0
sV6553822
p3556
V0
sV6615546
p3557
V0
sV6644047
p3558
V114
p3559
sV6521744
p3560
V4
sV6143586
p3561
V52
p3562
sV6143581
p3563
V68
p3564
sV6579036
p3565
V2
sV6611399
p3566
V37
p3567
sV6611398
p3568
V43
p3569
sV6611469
p3570
V19
p3571
sV6611468
p3572
V11
p3573
sV6611463
p3574
V0
sV6611462
p3575
V0
sV6611461
p3576
V0
sV6611460
p3577
V0
sV6611395
p3578
V75
p3579
sV6615201
p3580
V1
sV6611465
p3581
V41
p3582
sV6611396
p3583
V81
p3584
sV6545557
p3585
V440
p3586
sV6545551
p3587
V478
p3588
sV5241673
p3589
V140
p3590
sV5241677
p3591
V56
p3592
sV6554584
p3593
V33
p3594
sV6609583
p3595
V343
p3596
sV6593452
p3597
V110
p3598
sV6557173
p3599
V10
p3600
sV6552982
p3601
V49
p3602
sV6552987
p3603
V77
p3604
sV6317716
p3605
V0
sV6607323
p3606
V18
p3607
sV6607322
p3608
V20
p3609
sV6607327
p3610
V6
sV6496062
p3611
V37
p3612
sV6550160
p3613
V58
p3614
sV6607329
p3615
V14
p3616
sV6627963
p3617
V1
sV6547816
p3618
V48
p3619
sV6627962
p3620
V1
sV6549320
p3621
V33
p3622
sV6555379
p3623
V23
p3624
sV6627961
p3625
V1
sV6547818
p3626
V50
p3627
sV6658531
p3628
V0
sV6547819
p3629
V47
p3630
sV6627967
p3631
V1
sV6554913
p3632
V21
p3633
sV6627966
p3634
V1
sV6657377
p3635
V20
p3636
sV6613817
p3637
V0
sV6656904
p3638
V1
sV6623762
p3639
V1
sV6547768
p3640
V15
p3641
sV6547769
p3642
V43
p3643
sV6623767
p3644
V3
sV6594246
p3645
V12
p3646
sV6599118
p3647
V18
p3648
sV6599119
p3649
V17
p3650
sV6599116
p3651
V15
p3652
sV6599117
p3653
V18
p3654
sV6599114
p3655
V15
p3656
sV6599115
p3657
V20
p3658
sV6599112
p3659
V14
p3660
sV6201438
p3661
V48
p3662
sV6599110
p3663
V13
p3664
sV6599111
p3665
V15
p3666
sV6589349
p3667
V26
p3668
sV6589341
p3669
V17
p3670
sV6589345
p3671
V11
p3672
sV6599233
p3673
V2
sV6599237
p3674
V17
p3675
sV6599236
p3676
V10
p3677
sV6599235
p3678
V15
p3679
sV6599234
p3680
V7
sV6599239
p3681
V9
sV6599238
p3682
V8
sV6496051
p3683
V25
p3684
sV6496050
p3685
V1349
p3686
sV6496057
p3687
V22
p3688
sV6627970
p3689
V1
sV6642080
p3690
V0
sV6627972
p3691
V0
sV6627973
p3692
V2
sV6547799
p3693
V17
p3694
sV6547798
p3695
V9
sV6613826
p3696
V0
sV6547793
p3697
V97
p3698
sV6547792
p3699
V92
p3700
sV6547791
p3701
V83
p3702
sV6547790
p3703
V94
p3704
sV6599589
p3705
V1
sV6599588
p3706
V1
sV6599585
p3707
V1
sV6599584
p3708
V0
sV6599587
p3709
V1
sV6599586
p3710
V1
sV6599581
p3711
V1
sV6599580
p3712
V1
sV6599583
p3713
V1
sV6599582
p3714
V0
sV6268643
p3715
V63
p3716
sV6091200
p3717
V22
p3718
sV6612488
p3719
V0
sV6612489
p3720
V0
sV6091209
p3721
V20
p3722
sV6612485
p3723
V8
sV6612486
p3724
V29
p3725
sV6612487
p3726
V13
p3727
sV6612480
p3728
V12
p3729
sV6612481
p3730
V11
p3731
sV6612482
p3732
V4
sV6612483
p3733
V17
p3734
sV6590166
p3735
V12
p3736
sV6590161
p3737
V21
p3738
sV6545635
p3739
V183
p3740
sV6657410
p3741
V0
sV6123715
p3742
V9
sV6641281
p3743
V0
sV6521191
p3744
V28
p3745
sV4412451
p3746
V12
p3747
sV6640774
p3748
V4
sV6610254
p3749
V92
p3750
sV6614881
p3751
V0
sV6554465
p3752
V8
sV6554461
p3753
V3
sV6645058
p3754
V44
p3755
sV6644900
p3756
V58
p3757
sV6544549
p3758
V17
p3759
sV6589642
p3760
V3
sV6615024
p3761
V0
sV6644672
p3762
V60
p3763
sV6615020
p3764
V0
sV6553115
p3765
V77
p3766
sV6553110
p3767
V21
p3768
sV6615758
p3769
V0
sV6549139
p3770
V147
p3771
sV6549130
p3772
V76
p3773
sV6533662
p3774
V154
p3775
sV6643903
p3776
V97
p3777
sV6318104
p3778
V3
sV4696123
p3779
V72
p3780
sV6549784
p3781
V37
p3782
sV6609772
p3783
V192
p3784
sV6571626
p3785
V238
p3786
sV6657093
p3787
V0
sV6571621
p3788
V129
p3789
sV5164306
p3790
V13
p3791
sV6609826
p3792
V105
p3793
sV5164302
p3794
V15
p3795
sV6549790
p3796
V44
p3797
sV6546569
p3798
V1
sV6549796
p3799
V61
p3800
sV6546567
p3801
V12
p3802
sV6546566
p3803
V10
p3804
sV6546565
p3805
V0
sV6546564
p3806
V0
sV6546562
p3807
V0
sV6546561
p3808
V0
sV6546560
p3809
V0
sV6656222
p3810
V0
sV6531640
p3811
V99
p3812
sV6658337
p3813
V1
sV6657176
p3814
V2
sV6637760
p3815
V3
sV5821196
p3816
V5
sV6656596
p3817
V36
p3818
sV6647595
p3819
V37
p3820
sV6657315
p3821
V45
p3822
sV6589085
p3823
V17
p3824
sV6589084
p3825
V28
p3826
sV6589087
p3827
V98
p3828
sV6589086
p3829
V99
p3830
sV6589081
p3831
V2
sV6589080
p3832
V22
p3833
sV6589083
p3834
V7
sV6589082
p3835
V70
p3836
sV6589089
p3837
V97
p3838
sV6589088
p3839
V95
p3840
sV5721406
p3841
V8
sV5721404
p3842
V16
p3843
sV5721402
p3844
V41
p3845
sV6637585
p3846
V18
p3847
sV6533647
p3848
V163
p3849
sV6521836
p3850
V0
sV6090941
p3851
V16
p3852
sV6589660
p3853
V2
sV6589667
p3854
V8
sV6078452
p3855
V2
sV6627898
p3856
V1
sV6627893
p3857
V0
sV6205636
p3858
V21
p3859
sV6627891
p3860
V1
sV6614913
p3861
V16
p3862
sV6627897
p3863
V0
sV6627896
p3864
V1
sV6627895
p3865
V3
sV6205630
p3866
V23
p3867
sV6638757
p3868
V19
p3869
sV6638209
p3870
V3
sV6579287
p3871
V102
p3872
sV6551768
p3873
V13
p3874
sV6551760
p3875
V14
p3876
sV6551764
p3877
V26
p3878
sV6610138
p3879
V323
p3880
sV6627945
p3881
V0
sV6610132
p3882
V94
p3883
sV6553942
p3884
V36
p3885
sV6553946
p3886
V7
sV6641362
p3887
V0
sV6615569
p3888
V1
sV6100558
p3889
V64
p3890
sV4128225
p3891
V0
sV6615562
p3892
V14
p3893
sV6545797
p3894
V498
p3895
sV6545791
p3896
V498
p3897
sV6551830
p3898
V21
p3899
sV6648128
p3900
V89
p3901
sV6610398
p3902
V127
p3903
sV6648129
p3904
V88
p3905
sV6521504
p3906
V8
sV6656528
p3907
V0
sV6627946
p3908
V0
sV6545575
p3909
V447
p3910
sV6626850
p3911
V0
sV6553920
p3912
V8
sV5241653
p3913
V58
p3914
sV5241657
p3915
V1
sV6521760
p3916
V37
p3917
sV6557118
p3918
V4
sV6643591
p3919
V91
p3920
sV4412595
p3921
V0
sV6550142
p3922
V95
p3923
sV6317733
p3924
V8
sV6627943
p3925
V1
sV6611445
p3926
V26
p3927
sV6611444
p3928
V12
p3929
sV6611447
p3930
V52
p3931
sV6611441
p3932
V40
p3933
sV6611440
p3934
V21
p3935
sV6611443
p3936
V23
p3937
sV6611442
p3938
V0
sV6607307
p3939
V16
p3940
sV6611449
p3941
V0
sV6611448
p3942
V0
sV6643736
p3943
V94
p3944
sV6627530
p3945
V2
sV4672022
p3946
V36
p3947
sV6317591
p3948
V4
sV6558892
p3949
V477
p3950
sV6589872
p3951
V0
sV6589878
p3952
V0
sV5282938
p3953
V10
p3954
sV5282939
p3955
V62
p3956
sV5282932
p3957
V13
p3958
sV5282933
p3959
V21
p3960
sV5282930
p3961
V20
p3962
sV5282931
p3963
V12
p3964
sV5282936
p3965
V18
p3966
sV5282937
p3967
V19
p3968
sV5282934
p3969
V36
p3970
sV5282935
p3971
V8
sV6558821
p3972
V328
p3973
sV6558820
p3974
V639
p3975
sV6558822
p3976
V192
p3977
sV6599170
p3978
V19
p3979
sV6558828
p3980
V492
p3981
sV6599172
p3982
V20
p3983
sV6599173
p3984
V19
p3985
sV6599174
p3986
V19
p3987
sV6599175
p3988
V19
p3989
sV6599176
p3990
V98
p3991
sV6549300
p3992
V64
p3993
sV6549301
p3994
V49
p3995
sV6549306
p3996
V149
p3997
sV6549307
p3998
V137
p3999
sV6549305
p4000
V146
p4001
sV6549308
p4002
V136
p4003
sV6549309
p4004
V41
p4005
sV6547225
p4006
V9
sV6599219
p4007
V11
p4008
sV6599218
p4009
V9
sV6599215
p4010
V8
sV6599214
p4011
V10
p4012
sV6599217
p4013
V9
sV6599216
p4014
V14
p4015
sV6599211
p4016
V14
p4017
sV6599213
p4018
V15
p4019
sV6599212
p4020
V14
p4021
sV6091041
p4022
V12
p4023
sV6627959
p4024
V1
sV6656788
p4025
V4
sV6627952
p4026
V1
sV6627953
p4027
V3
sV6627950
p4028
V1
sV6627951
p4029
V2
sV6627957
p4030
V0
sV6627954
p4031
V0
sV6627955
p4032
V0
sV6593947
p4033
V21
p4034
sV4412467
p4035
V28
p4036
sV6571478
p4037
V9
sV6546793
p4038
V15
p4039
sV6546799
p4040
V14
p4041
sV6542084
p4042
V9
sV6589417
p4043
V138
p4044
sV6542086
p4045
V14
p4046
sV6542087
p4047
V26
p4048
sV6542080
p4049
V0
sV6589413
p4050
V146
p4051
sV6542082
p4052
V0
sV6542083
p4053
V0
sV6091263
p4054
V39
p4055
sV6268667
p4056
V0
sV6542088
p4057
V18
p4058
sV6542089
p4059
V10
p4060
sV6658471
p4061
V0
sV6637247
p4062
V262
p4063
sV6637246
p4064
V15
p4065
sV6637245
p4066
V4
sV6637243
p4067
V36
p4068
sV6637930
p4069
V9
sV6637240
p4070
V16
p4071
sV6590144
p4072
V111
p4073
sV6637249
p4074
V43
p4075
sV6637248
p4076
V79
p4077
sV6610096
p4078
V166
p4079
sV6610090
p4080
V165
p4081
sV6657435
p4082
V7
sV6630589
p4083
V6
sV6630588
p4084
V3
sV6630585
p4085
V3
sV6630584
p4086
V1
sV6630587
p4087
V6
sV6630586
p4088
V2
sV6630581
p4089
V1
sV6630583
p4090
V0
sV6630582
p4091
V0
sV6555288
p4092
V31
p4093
sV6555289
p4094
V40
p4095
sV6555282
p4096
V25
p4097
sV6555283
p4098
V41
p4099
sV6555280
p4100
V43
p4101
sV6555281
p4102
V37
p4103
sV6555286
p4104
V55
p4105
sV6555287
p4106
V41
p4107
sV6555284
p4108
V21
p4109
sV6555285
p4110
V87
p4111
sV6641006
p4112
V1
sV6610272
p4113
V81
p4114
sV6611391
p4115
V49
p4116
sV6611390
p4117
V46
p4118
sV6611393
p4119
V48
p4120
sV6611392
p4121
V46
p4122
sV6611394
p4123
V60
p4124
sV6611397
p4125
V38
p4126
sV6255181
p4127
V38
p4128
sV6630595
p4129
V4
sV6553135
p4130
V97
p4131
sV6255236
p4132
V34
p4133
sV6553130
p4134
V184
p4135
sV6029198
p4136
V71
p4137
sV6627324
p4138
V0
sV6627320
p4139
V0
sV6029191
p4140
V24
p4141
sV6643927
p4142
V121
p4143
sV6318124
p4144
V2
sV6532014
p4145
V92
p4146
sV6532015
p4147
V87
p4148
sV6532016
p4149
V100
p4150
sV6532017
p4151
V98
p4152
sV6532010
p4153
V181
p4154
sV6532011
p4155
V182
p4156
sV6532012
p4157
V91
p4158
sV6532013
p4159
V97
p4160
sV6532018
p4161
V89
p4162
sV6532019
p4163
V100
p4164
sV6609799
p4165
V359
p4166
sV6609790
p4167
V299
p4168
sV6546549
p4169
V2
sV6546548
p4170
V6
sV6557250
p4171
V7
sV6546541
p4172
V11
p4173
sV6546540
p4174
V0
sV6546543
p4175
V0
sV6546542
p4176
V0
sV6546545
p4177
V0
sV6546544
p4178
V1
sV6546547
p4179
V0
sV6546546
p4180
V0
sV6658915
p4181
V0
sV6656203
p4182
V1
sV6657158
p4183
V0
sV6546890
p4184
V2
sV6546895
p4185
V7
sV6657153
p4186
V0
sV6653121
p4187
V29
p4188
sV6590312
p4189
V135
p4190
sV6227705
p4191
V12
p4192
sV6589069
p4193
V0
sV6589068
p4194
V33
p4195
sV6589067
p4196
V7
sV6589066
p4197
V37
p4198
sV6589065
p4199
V36
p4200
sV6589064
p4201
V35
p4202
sV6589063
p4203
V1
sV6589062
p4204
V0
sV6589061
p4205
V94
p4206
sV6589060
p4207
V5
sV5721462
p4208
V18
p4209
sV5721466
p4210
V74
p4211
sV6642382
p4212
V3
sV6533621
p4213
V93
p4214
sV6078438
p4215
V2
sV6547056
p4216
V32
p4217
sV6228874
p4218
V7
sV6205618
p4219
V27
p4220
sV6205612
p4221
V24
p4222
sV6657847
p4223
V0
sV6657334
p4224
V0
sV6638772
p4225
V8
sV6627960
p4226
V1
sV6639138
p4227
V0
sV6078382
p4228
V2
sV6551700
p4229
V20
p4230
sV6551704
p4231
V22
p4232
sV6551708
p4233
V30
p4234
sV6615336
p4235
V0
sV6553965
p4236
V0
sV6553961
p4237
V0
sV6553969
p4238
V0
sV6612520
p4239
V3
sV6627377
p4240
V0
sV6627965
p4241
V2
sV6545775
p4242
V131
p4243
sV6022501
p4244
V71
p4245
sV6022505
p4246
V86
p4247
sV6627964
p4248
V0
sV6521568
p4249
V33
p4250
sV6627812
p4251
V10
p4252
sV6522064
p4253
V27
p4254
sV6029297
p4255
V119
p4256
sV6628121
p4257
V0
sV6547034
p4258
V9
sV6626875
p4259
V0
sV6641924
p4260
V0
sV6552614
p4261
V15
p4262
sV6552615
p4263
V14
p4264
sV6644000
p4265
V65
p4266
sV6552610
p4267
V4
sV6552611
p4268
V6
sV6552612
p4269
V13
p4270
sV6552613
p4271
V13
p4272
sV6593491
p4273
V568
p4274
sV6593364
p4275
V29
p4276
sV6627818
p4277
V8
sV6552949
p4278
V21
p4279
sV6552944
p4280
V50
p4281
sV6522204
p4282
V91
p4283
sV6554722
p4284
V1
sV6609637
p4285
V214
p4286
sV5954481
p4287
V0
sV5954483
p4288
V3
sV5954488
p4289
V0
sV6643711
p4290
V94
p4291
sV6553093
p4292
V28
p4293
sV6553092
p4294
V14
p4295
sV6553095
p4296
V52
p4297
sV6553094
p4298
V19
p4299
sV4672003
p4300
V37
p4301
sV6589855
p4302
V1
sV6549325
p4303
V129
p4304
sV6556668
p4305
V99
p4306
sV6599150
p4307
V80
p4308
sV6599154
p4309
V70
p4310
sV6556660
p4311
V96
p4312
sV6599158
p4313
V80
p4314
sV6558848
p4315
V955
p4316
sV6558843
p4317
V473
p4318
sV6558842
p4319
V469
p4320
sV6558841
p4321
V269
p4322
sV6637235
p4323
V1198
p4324
sV6558847
p4325
V575
p4326
sV6558845
p4327
V490
p4328
sV6558844
p4329
V156
p4330
sV5954664
p4331
V0
sV6651990
p4332
V4
sV6557393
p4333
V5
sV6611354
p4334
V71
p4335
sV6547200
p4336
V179
p4337
sV6547207
p4338
V19
p4339
sV6228382
p4340
V17
p4341
sV6091063
p4342
V22
p4343
sV5164178
p4344
V4
sV5053687
p4345
V45
p4346
sV5164170
p4347
V18
p4348
sV5164174
p4349
V0
sV6091245
p4350
V5
sV4412404
p4351
V8
sV6593966
p4352
V146
p4353
sV6637483
p4354
V50
p4355
sV6521520
p4356
V70
p4357
sV6658109
p4358
V0
sV6637261
p4359
V93
p4360
sV6637260
p4361
V57
p4362
sV6637262
p4363
V290
p4364
sV6637265
p4365
V725
p4366
sV6637267
p4367
V548
p4368
sV6637266
p4369
V721
p4370
sV6590120
p4371
V0
sV6637268
p4372
V219
p4373
sV6590126
p4374
V0
sV6638433
p4375
V1
sV6610078
p4376
V110
p4377
sV6610072
p4378
V56
p4379
sV6657455
p4380
V0
sV6589294
p4381
V64
p4382
sV6589295
p4383
V71
p4384
sV6589296
p4385
V2
sV6589297
p4386
V40
p4387
sV6589290
p4388
V47
p4389
sV6589291
p4390
V56
p4391
sV6589292
p4392
V46
p4393
sV6589293
p4394
V45
p4395
sV6640735
p4396
V7
sV6589298
p4397
V34
p4398
sV6610218
p4399
V42
p4400
sV6641024
p4401
V0
sV6521952
p4402
V48
p4403
sV6599637
p4404
V1
sV6599636
p4405
V1
sV6599635
p4406
V1
sV6599634
p4407
V1
sV6599633
p4408
V1
sV6599632
p4409
V1
sV6599631
p4410
V1
sV6599630
p4411
V1
sV6599639
p4412
V1
sV6599638
p4413
V1
sV5973277
p4414
V23
p4415
sV6620083
p4416
V83
p4417
sV6620088
p4418
V79
p4419
sV6553150
p4420
V99
p4421
sV6553155
p4422
V56
p4423
sV6615068
p4424
V0
sV6640995
p4425
V8
sV6615065
p4426
V5
sV6644637
p4427
V41
p4428
sV5241756
p4429
V0
sV5241752
p4430
V16
p4431
sV6318148
p4432
V1
sV6607446
p4433
V8
sV6607117
p4434
V6
sV6607111
p4435
V26
p4436
sV6607441
p4437
V7
sV6557096
p4438
V8
sV6532038
p4439
V194
p4440
sV6532039
p4441
V190
p4442
sV6532036
p4443
V198
p4444
sV6532037
p4445
V372
p4446
sV6532034
p4447
V184
p4448
sV6532035
p4449
V188
p4450
sV6532032
p4451
V183
p4452
sV6532033
p4453
V182
p4454
sV6532030
p4455
V91
p4456
sV6532031
p4457
V21
p4458
sV6317678
p4459
V10
p4460
sV4079850
p4461
V0
sV6546526
p4462
V38
p4463
sV6141475
p4464
V17
p4465
sV6141477
p4466
V3
sV6557272
p4467
V11
p4468
sV6519794
p4469
V96
p4470
sV6519795
p4471
V98
p4472
sV6519796
p4473
V95
p4474
sV6519797
p4475
V93
p4476
sV6519790
p4477
V93
p4478
sV6519791
p4479
V88
p4480
sV6519792
p4481
V82
p4482
sV6519793
p4483
V88
p4484
sV6519798
p4485
V97
p4486
sV6519799
p4487
V98
p4488
sV6656886
p4489
V9
sV6627707
p4490
V0
sV6627704
p4491
V0
sV6609556
p4492
V19
p4493
sV6602692
p4494
V212
p4495
sV5158893
p4496
V11
p4497
sV5158892
p4498
V0
sV5158891
p4499
V4
sV5158890
p4500
V0
sV5158897
p4501
V28
p4502
sV5158896
p4503
V37
p4504
sV5158895
p4505
V29
p4506
sV5158894
p4507
V30
p4508
sV5158899
p4509
V0
sV5158898
p4510
V11
p4511
sV6658322
p4512
V0
sV6589049
p4513
V91
p4514
sV6589048
p4515
V48
p4516
sV6589041
p4517
V91
p4518
sV6589040
p4519
V95
p4520
sV6589043
p4521
V58
p4522
sV6589042
p4523
V2
sV6589045
p4524
V99
p4525
sV6589044
p4526
V96
p4527
sV6589047
p4528
V84
p4529
sV6589046
p4530
V93
p4531
sV5721338
p4532
V28
p4533
sV5721442
p4534
V84
p4535
sV5721446
p4536
V0
sV6658666
p4537
V0
sV6653107
p4538
V148
p4539
sV6589624
p4540
V1
sV6533603
p4541
V139
p4542
sV6078416
p4543
V0
sV6205672
p4544
V35
p4545
sV6627859
p4546
V1
sV6627858
p4547
V1
sV6627857
p4548
V0
sV6627856
p4549
V1
sV6627855
p4550
V1
sV6627854
p4551
V1
sV6627853
p4552
V0
sV6627852
p4553
V2
sV6627851
p4554
V1
sV6627850
p4555
V3
sV6228859
p4556
V16
p4557
sV6228854
p4558
V56
p4559
sV6579243
p4560
V11
p4561
sV6658594
p4562
V8
sV6657869
p4563
V0
sV4672102
p4564
V24
p4565
sV6551728
p4566
V50
p4567
sV6551724
p4568
V14
p4569
sV6551720
p4570
V14
p4571
sV6610020
p4572
V350
p4573
sV6557655
p4574
V146
p4575
sV6553989
p4576
V0
sV6553985
p4577
V25
p4578
sV6553981
p4579
V8
sV6614074
p4580
V34
p4581
sV6610028
p4582
V412
p4583
sV6545755
p4584
V209
p4585
sV6614079
p4586
V46
p4587
sV6552584
p4588
V15
p4589
sV6552585
p4590
V11
p4591
sV6552586
p4592
V13
p4593
sV6552587
p4594
V13
p4595
sV6552582
p4596
V13
p4597
sV6552583
p4598
V13
p4599
sV6552588
p4600
V48
p4601
sV6552589
p4602
V45
p4603
sV6545533
p4604
V492
p4605
sV6641905
p4606
V0
sV6554529
p4607
V36
p4608
sV6554525
p4609
V13
p4610
sV6554295
p4611
V9
sV6554521
p4612
V3
sV6554290
p4613
V7
sV6626819
p4614
V0
sV6644024
p4615
V53
p4616
sV6643557
p4617
V54
p4618
sV6550186
p4619
V6
sV6550182
p4620
V22
p4621
sV6554746
p4622
V0
sV6611488
p4623
V22
p4624
sV6522044
p4625
V66
p4626
sV6611481
p4627
V23
p4628
sV6611480
p4629
V18
p4630
sV6611483
p4631
V24
p4632
sV6611482
p4633
V23
p4634
sV6611484
p4635
V23
p4636
sV6611487
p4637
V62
p4638
sV6609610
p4639
V293
p4640
sV6627971
p4641
V2
sV6643771
p4642
V107
p4643
sV6555303
p4644
V16
p4645
sV6555302
p4646
V52
p4647
sV6555301
p4648
V26
p4649
sV6547826
p4650
V19
p4651
sV6656763
p4652
V1
sV6547821
p4653
V49
p4654
sV6555306
p4655
V11
p4656
sV6552967
p4657
V13
p4658
sV6627281
p4659
V0
sV6552962
p4660
V41
p4661
sV6555305
p4662
V25
p4663
sV6552960
p4664
V35
p4665
sV6552961
p4666
V32
p4667
sV6589830
p4668
V11
p4669
sV6555304
p4670
V9
sV6589837
p4671
V0
sV6201493
p4672
V173
p4673
sV6558864
p4674
V137
p4675
sV6553215
p4676
V73
p4677
sV6558866
p4678
V690
p4679
sV6558861
p4680
V257
p4681
sV6558860
p4682
V191
p4683
sV6558862
p4684
V669
p4685
sV4672066
p4686
V41
p4687
sV6556931
p4688
V3
sV6552679
p4689
V39
p4690
sV5821234
p4691
V3
sV6656433
p4692
V0
sV4696201
p4693
V68
p4694
sV6091006
p4695
V0
sV3942842
p4696
V35
p4697
sV3942846
p4698
V29
p4699
sV6143565
p4700
V36
p4701
sV6090714
p4702
V14
p4703
sV6228132
p4704
V140
p4705
sV6677120
p4706
V30
p4707
sV4412427
p4708
V10
p4709
sV6547261
p4710
V26
p4711
sV6547267
p4712
V28
p4713
sV6589451
p4714
V24
p4715
sV6589455
p4716
V112
p4717
sV6638181
p4718
V0
sV6638188
p4719
V0
sV6628119
p4720
V0
sV6628118
p4721
V0
sV6658433
p4722
V1
sV6628112
p4723
V0
sV6628111
p4724
V0
sV6628110
p4725
V0
sV6628117
p4726
V0
sV6628116
p4727
V0
sV6628115
p4728
V0
sV6628114
p4729
V0
sV6590100
p4730
V7
sV6590109
p4731
V19
p4732
sV6637209
p4733
V86
p4734
sV6637208
p4735
V732
p4736
sV6642023
p4737
V2
sV6637205
p4738
V146
p4739
sV6637204
p4740
V58
p4741
sV6657471
p4742
V0
sV6614028
p4743
V0
sV5872084
p4744
V12
p4745
sV6614025
p4746
V0
sV6641594
p4747
V1
sV6614795
p4748
V3
sV6610054
p4749
V81
p4750
sV6611516
p4751
V26
p4752
sV6612484
p4753
V19
p4754
sV6090841
p4755
V0
sV4412443
p4756
V18
p4757
sV6641048
p4758
V0
sV6091101
p4759
V33
p4760
sV6521680
p4761
V39
p4762
sV6599611
p4763
V1
sV6599610
p4764
V1
sV6599613
p4765
V0
sV6599612
p4766
V1
sV6599615
p4767
V1
sV6599614
p4768
V1
sV6599617
p4769
V1
sV6599616
p4770
V1
sV6599619
p4771
V1
sV6599618
p4772
V1
sV6578909
p4773
V203
p4774
sV6555354
p4775
V4
sV6555355
p4776
V26
p4777
sV6555356
p4778
V43
p4779
sV6555357
p4780
V12
p4781
sV6555350
p4782
V35
p4783
sV6555351
p4784
V18
p4785
sV6555352
p4786
V29
p4787
sV6555353
p4788
V20
p4789
sV6615261
p4790
V6
sV6555358
p4791
V16
p4792
sV6555359
p4793
V2
sV5241705
p4794
V0
sV6610236
p4795
V42
p4796
sV6645033
p4797
V85
p4798
sV6554196
p4799
V2
sV6554190
p4800
V6
sV6615047
p4801
V0
sV6100653
p4802
V1
sV6615040
p4803
V0
sV6553170
p4804
V68
p4805
sV6644348
p4806
V41
p4807
sV6557632
p4808
V25
p4809
sV6100658
p4810
V42
p4811
sV6677337
p4812
V34
p4813
sV6677336
p4814
V34
p4815
sV6677335
p4816
V23
p4817
sV6677334
p4818
V31
p4819
sV6677332
p4820
V23
p4821
sV6677339
p4822
V5
sV6677338
p4823
V32
p4824
sV6643963
p4825
V125
p4826
sV6557077
p4827
V0
sV6532050
p4828
V134
p4829
sV6532052
p4830
V188
p4831
sV6532053
p4832
V195
p4833
sV6532055
p4834
V191
p4835
sV6550241
p4836
V390
p4837
sV6550240
p4838
V393
p4839
sV6550243
p4840
V298
p4841
sV6550242
p4842
V200
p4843
sV6550245
p4844
V292
p4845
sV6550244
p4846
V129
p4847
sV6550247
p4848
V41
p4849
sV6550246
p4850
V272
p4851
sV6550249
p4852
V240
p4853
sV6550248
p4854
V95
p4855
sV6627494
p4856
V0
sV6593804
p4857
V4
sV6546504
p4858
V0
sV6546501
p4859
V0
sV6546500
p4860
V41
p4861
sV4079874
p4862
V3
sV6557217
p4863
V6
sV6658954
p4864
V6
sV6607139
p4865
V4
sV6627723
p4866
V0
sV6627727
p4867
V0
sV6599055
p4868
V97
p4869
sV6599050
p4870
V98
p4871
sV6141453
p4872
V0
sV6268724
p4873
V9
sV6268727
p4874
V22
p4875
sV5721314
p4876
V0
sV6594010
p4877
V10
p4878
sV5721310
p4879
V37
p4880
sV5721318
p4881
V0
sV6549225
p4882
V78
p4883
sV6653163
p4884
V54
p4885
sV6658608
p4886
V30
p4887
sV6657113
p4888
V1
sV6629410
p4889
V8
sV6613946
p4890
V0
sV6637695
p4891
V41
p4892
sV6629412
p4893
V184
p4894
sV6627879
p4895
V0
sV6627878
p4896
V3
sV6579260
p4897
V9
sV6627871
p4898
V2
sV6627870
p4899
V1
sV6627873
p4900
V3
sV6627872
p4901
V3
sV6627875
p4902
V0
sV6627877
p4903
V5
sV6627876
p4904
V3
sV6228839
p4905
V36
p4906
sV6609996
p4907
V409
p4908
sV6657808
p4909
V0
sV6642252
p4910
V0
sV6544492
p4911
V48
p4912
sV6611373
p4913
V26
p4914
sV6641698
p4915
V0
sV6545731
p4916
V226
p4917
sV6545737
p4918
V236
p4919
sV6545883
p4920
V3
sV6550237
p4921
V492
p4922
sV6554505
p4923
V11
p4924
sV6554500
p4925
V10
p4926
sV6552658
p4927
V13
p4928
sV6552659
p4929
V24
p4930
sV6100538
p4931
V108
p4932
sV5954317
p4933
V21
p4934
sV5954310
p4935
V0
sV6552650
p4936
V24
p4937
sV6552651
p4938
V25
p4939
sV6552652
p4940
V16
p4941
sV6552653
p4942
V23
p4943
sV6552654
p4944
V35
p4945
sV6552655
p4946
V32
p4947
sV6552656
p4948
V19
p4949
sV6620968
p4950
V45
p4951
sV6620969
p4952
V46
p4953
sV6620966
p4954
V47
p4955
sV6620967
p4956
V39
p4957
sV6620964
p4958
V47
p4959
sV6620965
p4960
V45
p4961
sV6620962
p4962
V48
p4963
sV6620963
p4964
V47
p4965
sV6620960
p4966
V42
p4967
sV6620961
p4968
V48
p4969
sV6662899
p4970
V7
sV6615635
p4971
V0
sV6544428
p4972
V21
p4973
sV6609673
p4974
V261
p4975
sV6614885
p4976
V0
sV6589815
p4977
V3
sV6627268
p4978
V1
sV6643579
p4979
V102
p4980
sV6599196
p4981
V50
p4982
sV6599191
p4983
V50
p4984
sV6551905
p4985
V21
p4986
sV6551904
p4987
V33
p4988
sV6551901
p4989
V117
p4990
sV6551900
p4991
V51
p4992
sV6551903
p4993
V103
p4994
sV6551902
p4995
V53
p4996
sV6644407
p4997
V147
p4998
sV6553232
p4999
V0
sV6553235
p5000
V57
p5001
sV6607094
p5002
V19
p5003
sV6558889
p5004
V984
p5005
sV6558888
p5006
V598
p5007
sV6558884
p5008
V733
p5009
sV6558883
p5010
V987
p5011
sV6558882
p5012
V995
p5013
sV6029346
p5014
V147
p5015
sV6029342
p5016
V36
p5017
sV6606948
p5018
V738
p5019
sV6606944
p5020
V59
p5021
sV6606945
p5022
V52
p5023
sV6643759
p5024
V96
p5025
sV6606941
p5026
V15
p5027
sV6606942
p5028
V15
p5029
sV6606943
p5030
V59
p5031
sV6556953
p5032
V2
sV6656875
p5033
V4
sV4696227
p5034
V82
p5035
sV6448222
p5036
V0
sV6091023
p5037
V8
sV3942822
p5038
V29
p5039
sV3942826
p5040
V32
p5041
sV6090737
p5042
V19
p5043
sV6228154
p5044
V66
p5045
sV6593925
p5046
V6
sV6571491
p5047
V0
sV6227684
p5048
V20
p5049
sV6554883
p5050
V12
p5051
sV6656459
p5052
V2
sV6547243
p5053
V36
p5054
sV6653443
p5055
V1
sV6658419
p5056
V0
sV6653448
p5057
V62
p5058
sV6637225
p5059
V65
p5060
sV6637224
p5061
V38
p5062
sV6637227
p5063
V899
p5064
sV6637226
p5065
V75
p5066
sV6637221
p5067
V67
p5068
sV6637220
p5069
V0
sV6637222
p5070
V63
p5071
sV6637229
p5072
V50
p5073
sV6637228
p5074
V372
p5075
sV6090867
p5076
V25
p5077
sV6657497
p5078
V0
sV6521664
p5079
V13
p5080
sV6644986
p5081
V52
p5082
sV6551680
p5083
V20
p5084
sV6551686
p5085
V5
sV6551688
p5086
V10
p5087
sV6553826
p5088
V13
p5089
sV6614005
p5090
V0
sV6553820
p5091
V23
p5092
sV6610036
p5093
V20
p5094
sV6614000
p5095
V0
sV6599673
p5096
V1
sV6599672
p5097
V0
sV6599671
p5098
V1
sV6599670
p5099
V1
sV6599677
p5100
V1
sV6599676
p5101
V1
sV6599675
p5102
V1
sV6599674
p5103
V1
sV6644180
p5104
V69
p5105
sV6100490
p5106
V0
sV6593732
p5107
V76
p5108
sV6547810
p5109
V18
p5110
sV6547811
p5111
V21
p5112
sV6547812
p5113
V21
p5114
sV6547813
p5115
V23
p5116
sV6547814
p5117
V19
p5118
sV6547815
p5119
V23
p5120
sV6555378
p5121
V5
sV6547817
p5122
V45
p5123
sV6555376
p5124
V22
p5125
sV6555377
p5126
V33
p5127
sV6555374
p5128
V16
p5129
sV6555375
p5130
V15
p5131
sV6555372
p5132
V22
p5133
sV6555373
p5134
V16
p5135
sV6555370
p5136
V17
p5137
sV6555371
p5138
V16
p5139
sV6641062
p5140
V0
sV6100671
p5141
V57
p5142
sV6100670
p5143
V74
p5144
sV6100672
p5145
V73
p5146
sV6100674
p5147
V30
p5148
sV6644360
p5149
V62
p5150
sV5241713
p5151
V3
sV6609448
p5152
V403
p5153
sV5241718
p5154
V28
p5155
sV6578923
p5156
V111
p5157
sV6636479
p5158
V0
sV6557052
p5159
V3
sV6317634
p5160
V10
p5161
sV6614918
p5162
V0
sV6609592
p5163
V243
p5164
sV6550229
p5165
V495
p5166
sV6550228
p5167
V287
p5168
sV6550223
p5169
V256
p5170
sV6550222
p5171
V253
p5172
sV6550221
p5173
V162
p5174
sV6550220
p5175
V402
p5176
sV6550227
p5177
V494
p5178
sV6550226
p5179
V405
p5180
sV6550225
p5181
V223
p5182
sV6550224
p5183
V98
p5184
sV6557239
p5185
V0
sV6658971
p5186
V8
sV6656848
p5187
V13
p5188
sV6607400
p5189
V11
p5190
sV6607156
p5191
V8
sV6627749
p5192
V32
p5193
sV6627748
p5194
V41
p5195
sV6627743
p5196
V0
sV6627747
p5197
V19
p5198
sV6627746
p5199
V19
p5200
sV5164194
p5201
V9
sV6599070
p5202
V100
p5203
sV6599075
p5204
V99
p5205
sV5721370
p5206
V63
p5207
sV5721374
p5208
V0
sV5721378
p5209
V54
p5210
sV6547382
p5211
V10
p5212
sV6612523
p5213
V89
p5214
sV6612522
p5215
V84
p5216
sV6612521
p5217
V5
sV6653149
p5218
V24
p5219
sV6612527
p5220
V20
p5221
sV6612526
p5222
V48
p5223
sV6612525
p5224
V20
p5225
sV6612524
p5226
V8
sV6658620
p5227
V20
p5228
sV6612528
p5229
V0
sV6627813
p5230
V4
sV6613921
p5231
V2
sV6627811
p5232
V3
sV6627810
p5233
V1
sV6627817
p5234
V3
sV6627816
p5235
V2
sV6627815
p5236
V5
sV6627814
p5237
V0
sV6627819
p5238
V3
sV6642499
p5239
V0
sV6656668
p5240
V27
p5241
sV6657390
p5242
V0
sV6657398
p5243
V0
sV6638286
p5244
V11
p5245
sV6640956
p5246
V22
p5247
sV6268702
p5248
V14
p5249
sV6647516
p5250
V178
p5251
sV6268709
p5252
V31
p5253
sV6642270
p5254
V1
sV6546928
p5255
V4
sV6533932
p5256
V172
p5257
sV6545719
p5258
V209
p5259
sV6545865
p5260
V3
sV6545713
p5261
V498
p5262
sV6545860
p5263
V189
p5264
sV6657536
p5265
V0
sV6657531
p5266
V0
sV6638861
p5267
V0
sV6521273
p5268
V11
p5269
sV6554560
p5270
V0
sV6599601
p5271
V1
sV6656650
p5272
V14
p5273
sV6552672
p5274
V26
p5275
sV6552673
p5276
V0
sV6552670
p5277
V42
p5278
sV6552671
p5279
V41
p5280
sV6552677
p5281
V35
p5282
sV6552674
p5283
V37
p5284
sV6552678
p5285
V35
p5286
sV6593382
p5287
V326
p5288
sV6677127
p5289
V30
p5290
sV6677124
p5291
V19
p5292
sV6677125
p5293
V14
p5294
sV6677122
p5295
V30
p5296
sV6677123
p5297
V30
p5298
sV5954338
p5299
V13
p5300
sV6677121
p5301
V30
p5302
sV6611382
p5303
V3
sV5954331
p5304
V15
p5305
sV6554780
p5306
V19
p5307
sV6544409
p5308
V96
p5309
sV6544402
p5310
V163
p5311
sV6522000
p5312
V30
p5313
sV6644792
p5314
V51
p5315
sV6553037
p5316
V45
p5317
sV6553032
p5318
V53
p5319
sV6615438
p5320
V0
sV6627242
p5321
V0
sV4583689
p5322
V0
sV4672248
p5323
V13
p5324
sV6552929
p5325
V52
p5326
sV6552924
p5327
V56
p5328
sV6644420
p5329
V64
p5330
sV6553250
p5331
V21
p5332
sV6029361
p5333
V6
sV6029366
p5334
V113
p5335
sV6609655
p5336
V318
p5337
sV5954650
p5338
V20
p5339
sV6607210
p5340
V2
sV6228315
p5341
V37
p5342
sV4696240
p5343
V80
p5344
sV3942806
p5345
V56
p5346
sV3942802
p5347
V43
p5348
sV5164190
p5349
V2
sV6090755
p5350
V22
p5351
sV6546718
p5352
V8
sV6546719
p5353
V6
sV6546714
p5354
V26
p5355
sV6546716
p5356
V15
p5357
sV6546717
p5358
V4
sV6546713
p5359
V7
sV5954537
p5360
V8
sV5954531
p5361
V3
sV6556975
p5362
V4
sV5821274
p5363
V38
p5364
sV6656472
p5365
V0
sV6653463
p5366
V0
sV6619993
p5367
V78
p5368
sV6658161
p5369
V23
p5370
sV6619998
p5371
V81
p5372
sV5954658
p5373
V18
p5374
sV6646033
p5375
V10
p5376
sV6642067
p5377
V1
sV6188591
p5378
V22
p5379
sV6228175
p5380
V1
sV5721299
p5381
V43
p5382
sV5721290
p5383
V90
p5384
sV5721294
p5385
V41
p5386
sV6090801
p5387
V20
p5388
sV6090806
p5389
V4
sV6138797
p5390
V1
sV6138790
p5391
V0
sV6589762
p5392
V0
sV6589768
p5393
V0
sV6205594
p5394
V31
p5395
sV6638675
p5396
V0
sV6521648
p5397
V5
sV6521391
p5398
V8
sV6521396
p5399
V50
p5400
sV6599655
p5401
V1
sV6599654
p5402
V1
sV6599657
p5403
V1
sV6599656
p5404
V1
sV6599651
p5405
V1
sV6599650
p5406
V1
sV6599653
p5407
V1
sV6599652
p5408
V1
sV6599659
p5409
V1
sV6599658
p5410
V1
sV6553808
p5411
V5
sV6614067
p5412
V0
sV6553804
p5413
V0
sV6645212
p5414
V62
p5415
sV6640682
p5416
V49
p5417
sV6615228
p5418
V0
sV6100478
p5419
V0
sV6644167
p5420
V95
p5421
sV6615223
p5422
V0
sV6555318
p5423
V23
p5424
sV6555319
p5425
V39
p5426
sV6547838
p5427
V366
p5428
sV6547839
p5429
V10
p5430
sV6547832
p5431
V22
p5432
sV6547833
p5433
V21
p5434
sV6555312
p5435
V13
p5436
sV6555313
p5437
V21
p5438
sV6555314
p5439
V46
p5440
sV6555315
p5441
V20
p5442
sV6555316
p5443
V65
p5444
sV6555317
p5445
V34
p5446
sV6620028
p5447
V79
p5448
sV6620023
p5449
V73
p5450
sV6641088
p5451
V0
sV6611508
p5452
V52
p5453
sV6611509
p5454
V54
p5455
sV6100619
p5456
V49
p5457
sV6644300
p5458
V43
p5459
sV6615080
p5460
V0
sV6611502
p5461
V49
p5462
sV6611503
p5463
V46
p5464
sV6611504
p5465
V47
p5466
sV6611505
p5467
V54
p5468
sV6611506
p5469
V54
p5470
sV6611507
p5471
V53
p5472
sV4079814
p5473
V0
sV6626977
p5474
V21
p5475
sV6641881
p5476
V0
sV5241736
p5477
V29
p5478
sV6609466
p5479
V459
p5480
sV6593711
p5481
V152
p5482
sV6636455
p5483
V0
sV6578769
p5484
V702
p5485
sV6557030
p5486
V7
sV4672183
p5487
V26
p5488
sV6554045
p5489
V14
p5490
sV6554041
p5491
V9
sV6695203
p5492
V74
p5493
sV6695202
p5494
V74
p5495
sV6695206
p5496
V47
p5497
sV6695205
p5498
V76
p5499
sV6695204
p5500
V37
p5501
sV6662911
p5502
V15
p5503
sV6614939
p5504
V0
sV6614936
p5505
V0
sV6614932
p5506
V21
p5507
sV6643651
p5508
V56
p5509
sV6558819
p5510
V486
p5511
sV6589993
p5512
V2
sV6607170
p5513
V35
p5514
sV6607177
p5515
V3
sV6545701
p5516
V368
p5517
sV6545707
p5518
V488
p5519
sV6556788
p5520
V5
sV6141497
p5521
V77
p5522
sV6141492
p5523
V8
sV6549772
p5524
V38
p5525
sV6549778
p5526
V64
p5527
sV5721358
p5528
V28
p5529
sV6594053
p5530
V2
sV6652834
p5531
V251
p5532
sV5721354
p5533
V71
p5534
sV6627765
p5535
V15
p5536
sV6627764
p5537
V40
p5538
sV6627767
p5539
V18
p5540
sV6627766
p5541
V10
p5542
sV6091186
p5543
V1
sV6627760
p5544
V9
sV6627763
p5545
V12
p5546
sV6627762
p5547
V11
p5548
sV6612505
p5549
V1
sV6612504
p5550
V28
p5551
sV6612507
p5552
V7
sV6612506
p5553
V0
sV6627769
p5554
V37
p5555
sV6627768
p5556
V18
p5557
sV6612503
p5558
V26
p5559
sV6612502
p5560
V35
p5561
sV5158927
p5562
V11
p5563
sV5158926
p5564
V12
p5565
sV5158925
p5566
V0
sV5158924
p5567
V0
sV5158923
p5568
V24
p5569
sV6627838
p5570
V4
sV5158921
p5571
V14
p5572
sV5158920
p5573
V11
p5574
sV6613902
p5575
V0
sV6627837
p5576
V2
sV6627836
p5577
V6
sV6627831
p5578
V1
sV6627830
p5579
V2
sV5158929
p5580
V0
sV5158928
p5581
V0
sV5164274
p5582
V28
p5583
sV5164270
p5584
V13
p5585
sV5164278
p5586
V17
p5587
sV6647537
p5588
V89
p5589
sV6647530
p5590
V75
p5591
sV6553205
p5592
V68
p5593
sV6642210
p5594
V0
sV6546902
p5595
V9
sV6546907
p5596
V3
sV6590281
p5597
V88
p5598
sV6589685
p5599
V12
p5600
sV6533917
p5601
V172
p5602
sV6545845
p5603
V3
sV6521258
p5604
V4
sV6610012
p5605
V254
p5606
sV6641746
p5607
V1
sV6554235
p5608
V3
sV6554540
p5609
V11
p5610
sV6554230
p5611
V8
sV6554545
p5612
V1
sV6552698
p5613
V22
p5614
sV6552699
p5615
V25
p5616
sV6552694
p5617
V24
p5618
sV6552695
p5619
V19
p5620
sV6552696
p5621
V0
sV6552690
p5622
V21
p5623
sV6552691
p5624
V28
p5625
sV6552692
p5626
V27
p5627
sV6552693
p5628
V25
p5629
sV6677140
p5630
V10
p5631
sV6677141
p5632
V20
p5633
sV6677142
p5634
V20
p5635
sV6677143
p5636
V18
p5637
sV6677144
p5638
V20
p5639
sV6677145
p5640
V20
p5641
sV6677146
p5642
V19
p5643
sV6677147
p5644
V19
p5645
sV6677148
p5646
V10
p5647
sV6677149
p5648
V15
p5649
sV5954353
p5650
V4
sV6143544
p5651
V84
p5652
sV6022497
p5653
V48
p5654
sV6022493
p5655
V178
p5656
sV6659002
p5657
V0
sV6544461
p5658
V60
p5659
sV6544466
p5660
V38
p5661
sV6545593
p5662
V339
p5663
sV6545599
p5664
V320
p5665
sV6615144
p5666
V0
sV6555310
p5667
V21
p5668
sV6615410
p5669
V0
sV6615140
p5670
V0
sV6555311
p5671
V59
p5672
sV6627949
p5673
V1
sV6615418
p5674
V7
sV6553012
p5675
V76
p5676
sV6547830
p5677
V20
p5678
sV6553017
p5679
V59
p5680
sV6627948
p5681
V0
sV6547831
p5682
V21
p5683
sV6627224
p5684
V0
sV6547836
p5685
V200
p5686
sV6547837
p5687
V60
p5688
sV6613832
p5689
V15
p5690
sV6547834
p5691
V63
p5692
sV6627944
p5693
V0
sV6547835
p5694
V149
p5695
sV6643820
p5696
V31
p5697
sV6627947
p5698
V2
sV6553274
p5699
V23
p5700
sV6553276
p5701
V669
p5702
sV6627941
p5703
V2
sV6642090
p5704
V1
sV6644443
p5705
V85
p5706
sV6627942
p5707
V2
sV6643795
p5708
V108
p5709
sV6606908
p5710
V16
p5711
sV6606909
p5712
V10
p5713
sV6627597
p5714
V0
sV6590086
p5715
V8
sV6607233
p5716
V0
sV4696261
p5717
V9
sV6590085
p5718
V0
sV6607238
p5719
V4
sV6590084
p5720
V0
sV4079913
p5721
V9
sV6228041
p5722
V0
sV6143558
p5723
V81
p5724
sV6546736
p5725
V21
p5726
sV6546737
p5727
V16
p5728
sV6546734
p5729
V19
p5730
sV6546735
p5731
V7
sV6546732
p5732
V0
sV6546733
p5733
V0
sV6546730
p5734
V7
sV6546731
p5735
V14
p5736
sV6546738
p5737
V3
sV6546739
p5738
V13
p5739
sV6542026
p5740
V24
p5741
sV6542027
p5742
V25
p5743
sV6542024
p5744
V0
sV6542025
p5745
V23
p5746
sV6542022
p5747
V0
sV6542023
p5748
V0
sV6542020
p5749
V0
sV6542021
p5750
V8
sV6542028
p5751
V0
sV6542029
p5752
V13
p5753
sV6554840
p5754
V2
sV6228373
p5755
V10
p5756
sV6556997
p5757
V11
p5758
sV6653408
p5759
V57
p5760
sV6615088
p5761
V0
sV6653404
p5762
V0
sV5954633
p5763
V22
p5764
sV6268650
p5765
V0
sV6642046
p5766
V2
sV6611500
p5767
V48
p5768
sV6090774
p5769
V0
sV6228198
p5770
V0
sV6228192
p5771
V3
sV6615085
p5772
V0
sV6542090
p5773
V20
p5774
sV6090826
p5775
V29
p5776
sV6589218
p5777
V141
p5778
sV6554365
p5779
V0
sV6589743
p5780
V13
p5781
sV6205577
p5782
V16
p5783
sV6205570
p5784
V30
p5785
sV6638129
p5786
V0
sV6639521
p5787
V0
sV6614739
p5788
V0
sV6614734
p5789
V1
sV6641243
p5790
V0
sV6553862
p5791
V0
sV6553865
p5792
V0
sV6555332
p5793
V13
p5794
sV6555333
p5795
V34
p5796
sV6555330
p5797
V34
p5798
sV6555331
p5799
V25
p5800
sV6555337
p5801
V4
sV6555334
p5802
V22
p5803
sV6555335
p5804
V1
sV6555338
p5805
V23
p5806
sV6100452
p5807
V78
p5808
sV6645093
p5809
V76
p5810
sV6620008
p5811
V76
p5812
sV6610290
p5813
V42
p5814
sV6610299
p5815
V89
p5816
sV6677355
p5817
V30
p5818
sV6677354
p5819
V28
p5820
sV6677357
p5821
V27
p5822
sV6677356
p5823
V19
p5824
sV6677351
p5825
V32
p5826
sV6677353
p5827
V23
p5828
sV6677352
p5829
V30
p5830
sV6029178
p5831
V0
sV6677358
p5832
V3
sV6554688
p5833
V3
sV6636431
p5834
V1
sV6626954
p5835
V1
sV6636438
p5836
V7
sV6552737
p5837
V0
sV6552736
p5838
V17
p5839
sV6644145
p5840
V50
p5841
sV6552733
p5842
V14
p5843
sV6552732
p5844
V23
p5845
sV6552731
p5846
V28
p5847
sV6552730
p5848
V22
p5849
sV6578963
p5850
V192
p5851
sV6250336
p5852
V7
sV6552739
p5853
V44
p5854
sV6552738
p5855
V45
p5856
sV6557019
p5857
V2
sV4672166
p5858
V0
sV6610437
p5859
V98
p5860
sV6554065
p5861
V15
p5862
sV6614954
p5863
V12
p5864
sV6636383
p5865
V0
sV6611522
p5866
V39
p5867
sV6611520
p5868
V0
sV6100636
p5869
V0
sV6611526
p5870
V56
p5871
sV6611527
p5872
V38
p5873
sV6611525
p5874
V43
p5875
sV6611528
p5876
V56
p5877
sV6627890
p5878
V1
sV6643675
p5879
V128
p5880
sV6627894
p5881
V1
sV6654660
p5882
V0
sV6654664
p5883
V69
p5884
sV6654669
p5885
V0
sV6521936
p5886
V26
p5887
sV6668892
p5888
V692
p5889
sV6668893
p5890
V696
p5891
sV6668890
p5892
V77
p5893
sV6668891
p5894
V293
p5895
sV6668894
p5896
V94
p5897
sV6556768
p5898
V2
sV6556769
p5899
V36
p5900
sV6666944
p5901
V165
p5902
sV6556764
p5903
V50
p5904
sV6556765
p5905
V50
p5906
sV6556766
p5907
V5
sV6556767
p5908
V3
sV6556760
p5909
V23
p5910
sV6556761
p5911
V17
p5912
sV6556762
p5913
V14
p5914
sV6556763
p5915
V50
p5916
sV6615607
p5917
V0
sV6615603
p5918
V0
sV6640800
p5919
V17
p5920
sV6626780
p5921
V0
sV6547345
p5922
V6
sV6547340
p5923
V8
sV6628870
p5924
V321
p5925
sV6549233
p5926
V36
p5927
sV6602611
p5928
V43
p5929
sV6554049
p5930
V2
sV6627789
p5931
V16
p5932
sV6627788
p5933
V34
p5934
sV6627787
p5935
V24
p5936
sV6627786
p5937
V27
p5938
sV6627785
p5939
V19
p5940
sV6627784
p5941
V19
p5942
sV6627783
p5943
V20
p5944
sV6627782
p5945
V10
p5946
sV6627781
p5947
V16
p5948
sV6627780
p5949
V50
p5950
sV5158901
p5951
V32
p5952
sV5158900
p5953
V51
p5954
sV5158903
p5955
V9
sV5158902
p5956
V0
sV5158905
p5957
V2
sV6656987
p5958
V0
sV5158907
p5959
V14
p5960
sV5158906
p5961
V18
p5962
sV5158909
p5963
V10
p5964
sV5158908
p5965
V2
sV6629405
p5966
V4
sV6642187
p5967
V1
sV5164258
p5968
V10
p5969
sV5164254
p5970
V9
sV5164250
p5971
V5
sV6593864
p5972
V190
p5973
sV6647551
p5974
V201
p5975
sV6626714
p5976
V0
sV6647558
p5977
V189
p5978
sV6653093
p5979
V0
sV6642455
p5980
V0
sV6642459
p5981
V3
sV6638829
p5982
V0
sV6628696
p5983
V19
p5984
sV6628691
p5985
V41
p5986
sV6642234
p5987
V0
sV6641988
p5988
V0
sV6627885
p5989
V1
sV6551850
p5990
V126
p5991
sV5954374
p5992
V23
p5993
sV6533797
p5994
V206
p5995
sV6545821
p5996
V446
p5997
sV6677169
p5998
V25
p5999
sV6545827
p6000
V480
p6001
sV6677162
p6002
V29
p6003
sV6677163
p6004
V10
p6005
sV6677160
p6006
V11
p6007
sV6228910
p6008
V0
sV6677166
p6009
V15
p6010
sV6677167
p6011
V10
p6012
sV6677164
p6013
V24
p6014
sV6544446
p6015
V11
p6016
sV6544444
p6017
V21
p6018
sV6615385
p6019
V0
sV5973315
p6020
V37
p6021
sV6554215
p6022
V9
sV6554210
p6023
V1
sV6553073
p6024
V9
sV6553077
p6025
V28
p6026
sV6615168
p6027
V0
sV6643807
p6028
V87
p6029
sV6627206
p6030
V0
sV6100554
p6031
V19
p6032
sV6611265
p6033
V95
p6034
sV6611264
p6035
V95
p6036
sV6611267
p6037
V99
p6038
sV6644466
p6039
V105
p6040
sV6611263
p6041
V97
p6042
sV6611262
p6043
V91
p6044
sV6607037
p6045
V2
sV6611269
p6046
V97
p6047
sV6611268
p6048
V91
p6049
sV6029327
p6050
V86
p6051
sV6029321
p6052
V159
p6053
sV6606928
p6054
V41
p6055
sV6606929
p6056
V29
p6057
sV6606922
p6058
V37
p6059
sV6606923
p6060
V30
p6061
sV6606920
p6062
V28
p6063
sV6606921
p6064
V49
p6065
sV6606926
p6066
V29
p6067
sV6606927
p6068
V15
p6069
sV6606924
p6070
V10
p6071
sV6606925
p6072
V28
p6073
sV6609691
p6074
V251
p6075
sV6607253
p6076
V30
p6077
sV4696285
p6078
V13
p6079
sV6546751
p6080
V91
p6081
sV6549251
p6082
V21
p6083
sV6546757
p6084
V52
p6085
sV6542040
p6086
V7
sV6542041
p6087
V17
p6088
sV6542042
p6089
V1
sV6542043
p6090
V0
sV6542044
p6091
V7
sV6557599
p6092
V132
p6093
sV6542046
p6094
V14
p6095
sV6542047
p6096
V11
p6097
sV6542048
p6098
V13
p6099
sV6542049
p6100
V14
p6101
sV6227993
p6102
V0
sV6554861
p6103
V0
sV5954572
p6104
V2
sV5954574
p6105
V11
p6106
sV6228429
p6107
V5
sV6228421
p6108
V4
sV6531997
p6109
V98
p6110
sV6637283
p6111
V74
p6112
sV6637282
p6113
V150
p6114
sV6637281
p6115
V138
p6116
sV5954619
p6117
V1
sV6637286
p6118
V35
p6119
sV6637285
p6120
V445
p6121
sV6637284
p6122
V660
p6123
sV6637289
p6124
V485
p6125
sV6637288
p6126
V340
p6127
sV6188550
p6128
V16
p6129
sV6590185
p6130
V241
p6131
sV6201501
p6132
V232
p6133
sV6090796
p6134
V0
sV6090792
p6135
V0
sV6589232
p6136
V143
p6137
sV5721542
p6138
V0
sV4412515
p6139
V21
p6140
sV6589722
p6141
V1
sV6531992
p6142
V96
p6143
sV6638103
p6144
V25
p6145
sV6653429
p6146
V0
sV6653428
p6147
V0
sV6637824
p6148
V1
sV6553842
p6149
V9
sV6599698
p6150
V0
sV6553846
p6151
V0
sV6614713
p6152
V0
sV6599691
p6153
V1
sV6599690
p6154
V0
sV6599693
p6155
V0
sV6599692
p6156
V0
sV6599695
p6157
V0
sV6599694
p6158
V0
sV6599697
p6159
V0
sV6599696
p6160
V1
sV5053778
p6161
V17
p6162
sV6647614
p6163
V176
p6164
sV6620063
p6165
V78
p6166
sV6620068
p6167
V81
p6168
sV6628736
p6169
V16
p6170
sV6628732
p6171
V16
p6172
sV6521601
p6173
V29
p6174
sV6521351
p6175
V6
sV6029157
p6176
V18
p6177
sV6554666
p6178
V5
sV6636414
p6179
V7
sV6317822
p6180
V1
sV6552711
p6181
V23
p6182
sV6100432
p6183
V25
p6184
sV6552713
p6185
V23
p6186
sV6552712
p6187
V7
sV6100437
p6188
V32
p6189
sV6552714
p6190
V23
p6191
sV6552717
p6192
V32
p6193
sV6552716
p6194
V20
p6195
sV6552719
p6196
V18
p6197
sV6578726
p6198
V318
p6199
sV4672147
p6200
V11
p6201
sV6554009
p6202
V3
sV6614971
p6203
V0
sV6610416
p6204
V46
p6205
sV6554001
p6206
V1
sV6554005
p6207
V1
sV6641948
p6208
V0
sV6644877
p6209
V45
p6210
sV6644697
p6211
V53
p6212
sV6519736
p6213
V120
p6214
sV6519737
p6215
V96
p6216
sV6519734
p6217
V113
p6218
sV6519735
p6219
V62
p6220
sV6519732
p6221
V94
p6222
sV6519733
p6223
V58
p6224
sV6519730
p6225
V67
p6226
sV6519731
p6227
V135
p6228
sV6519738
p6229
V75
p6230
sV6519739
p6231
V75
p6232
sV6613852
p6233
V7
sV6656821
p6234
V14
p6235
sV6615595
p6236
V0
sV6615592
p6237
V0
sV6644310
p6238
V112
p6239
sV6556746
p6240
V5
sV6556747
p6241
V29
p6242
sV6556742
p6243
V10
p6244
sV6556743
p6245
V10
p6246
sV6556740
p6247
V10
p6248
sV6556741
p6249
V8
sV6668874
p6250
V648
p6251
sV6668875
p6252
V206
p6253
sV6668876
p6254
V200
p6255
sV6668877
p6256
V235
p6257
sV6668870
p6258
V265
p6259
sV6668871
p6260
V268
p6261
sV6556748
p6262
V30
p6263
sV6556749
p6264
V0
sV6615625
p6265
V0
sV6557294
p6266
V4
sV6627413
p6267
V0
sV6594092
p6268
V57
p6269
sV5869695
p6270
V0
sV6628858
p6271
V247
p6272
sV6091145
p6273
V10
p6274
sV6628857
p6275
V0
sV6602636
p6276
V0
sV6090635
p6277
V21
p6278
sV6090630
p6279
V30
p6280
sV5164238
p6281
V11
p6282
sV6657882
p6283
V0
sV5164230
p6284
V4
sV5164234
p6285
V11
p6286
sV6557437
p6287
V10
p6288
sV6647579
p6289
V194
p6290
sV6640943
p6291
V32
p6292
sV6593843
p6293
V71
p6294
sV6542031
p6295
V27
p6296
sV6547363
p6297
V8
sV6546417
p6298
V9
sV6546943
p6299
V4
sV6644648
p6300
V54
p6301
sV6657083
p6302
V0
sV6546948
p6303
V245
p6304
sV6602674
p6305
V111
p6306
sV6656686
p6307
V29
p6308
sV6642435
p6309
V1
sV6627761
p6310
V11
p6311
sV6612508
p6312
V18
p6313
sV6657224
p6314
V0
sV6638373
p6315
V10
p6316
sV6658248
p6317
V19
p6318
sV6589393
p6319
V68
p6320
sV6589397
p6321
V75
p6322
sV6612501
p6323
V42
p6324
sV6612500
p6325
V12
p6326
sV6656641
p6327
V27
p6328
sV6627839
p6329
V4
sV5158922
p6330
V23
p6331
sV6599574
p6332
V1
sV6599575
p6333
V1
sV6599576
p6334
V1
sV6599577
p6335
V1
sV6545809
p6336
V473
p6337
sV6599571
p6338
V1
sV6599572
p6339
V1
sV6599573
p6340
V0
sV6599578
p6341
V1
sV6599579
p6342
V1
sV6545803
p6343
V373
p6344
sV6521164
p6345
V55
p6346
sV5973338
p6347
V33
p6348
sV6555277
p6349
V28
p6350
sV6555276
p6351
V29
p6352
sV6555275
p6353
V23
p6354
sV6555274
p6355
V28
p6356
sV6555273
p6357
V29
p6358
sV6555272
p6359
V30
p6360
sV6555271
p6361
V21
p6362
sV6555270
p6363
V28
p6364
sV6615364
p6365
V0
sV6642473
p6366
V14
p6367
sV6555279
p6368
V30
p6369
sV6555278
p6370
V29
p6371
sV6554270
p6372
V0
sV6554275
p6373
V3
sV6554279
p6374
V3
sV6553058
p6375
V0
sV6589890
p6376
V0
sV6615104
p6377
V0
sV6589897
p6378
V2
sV6643867
p6379
V132
p6380
sV6611285
p6381
V319
p6382
sV6611284
p6383
V87
p6384
sV6607015
p6385
V6
sV6611282
p6386
V336
p6387
sV6611281
p6388
V181
p6389
sV6611280
p6390
V181
p6391
sV6627085
p6392
V0
sV6607370
p6393
V19
p6394
sV6554496
p6395
V4
sV6554490
p6396
V5
sV4079742
p6397
V9
sV6557608
p6398
V141
p6399
sV6557609
p6400
V139
p6401
sV6552899
p6402
V116
p6403
sV6557604
p6404
V142
p6405
sV6557605
p6406
V147
p6407
sV6557606
p6408
V138
p6409
sV6557607
p6410
V133
p6411
sV6557600
p6412
V72
p6413
sV6557601
p6414
V145
p6415
sV6557602
p6416
V143
p6417
sV6557603
p6418
V49
p6419
sV6227814
p6420
V32
p6421
sV6090764
p6422
V27
p6423
sV6550036
p6424
V39
p6425
sV6658870
p6426
V0
sV6546775
p6427
V8
sV5954552
p6428
V17
p6429
sV6542068
p6430
V12
p6431
sV6542069
p6432
V0
sV6542062
p6433
V0
sV6542063
p6434
V0
sV6542060
p6435
V8
sV6542061
p6436
V8
sV6542066
p6437
V16
p6438
sV6542067
p6439
V19
p6440
sV6542064
p6441
V1
sV6542065
p6442
V1
sV6652795
p6443
V497
p6444
sV6626684
p6445
V0
sV6227601
p6446
V12
p6447
sV6227973
p6448
V0
sV6607272
p6449
V7
sV6188578
p6450
V7
sV5721278
p6451
V0
sV5721274
p6452
V17
p6453
sV6138734
p6454
V40
p6455
sV6551816
p6456
V97
p6457
sV6656543
p6458
V1
sV6551812
p6459
V47
p6460
sV6547422
p6461
V148
p6462
sV5821169
p6463
V18
p6464
sV6547135
p6465
V13
p6466
sV6638163
p6467
V9
sV6637803
p6468
V0
sV6642370
p6469
V17
p6470
sV6641570
p6471
V10
p6472
sV6571505
p6473
V12
p6474
sV6571502
p6475
V57
p6476
sV6614777
p6477
V0
sV6571508
p6478
V90
p6479
sV6620048
p6480
V81
p6481
sV6657353
p6482
V0
sV6620043
p6483
V83
p6484
sV6628712
p6485
V21
p6486
sV6628717
p6487
V3
sV6521378
p6488
V26
p6489
sV6594228
p6490
V405
p6491
sV6639566
p6492
V0
sV6641391
p6493
V0
sV6554390
p6494
V11
p6495
sV6641398
p6496
V8
sV6554644
p6497
V7
sV6554395
p6498
V0
sV6556644
p6499
V97
p6500
sV6317844
p6501
V1
sV6552773
p6502
V124
p6503
sV4079826
p6504
V0
sV6552777
p6505
V140
p6506
sV6644107
p6507
V97
p6508
sV6554025
p6509
V0
sV6554021
p6510
V0
sV6610473
p6511
V60
p6512
sV6521888
p6513
V3
sV6558829
p6514
V588
p6515
sV6599171
p6516
V20
p6517
sV6644816
p6518
V57
p6519
sV5241681
p6520
V12
p6521
sV6519751
p6522
V121
p6523
sV6519752
p6524
V79
p6525
sV6519753
p6526
V87
p6527
sV6519754
p6528
V89
p6529
sV6519755
p6530
V87
p6531
sV6519756
p6532
V94
p6533
sV6519757
p6534
V36
p6535
sV6519758
p6536
V25
p6537
sV6519759
p6538
V79
p6539
sV6578879
p6540
V245
p6541
sV4672120
p6542
V33
p6543
sV4672129
p6544
V28
p6545
sV6556723
p6546
V21
p6547
sV6556724
p6548
V22
p6549
sV6556725
p6550
V25
p6551
sV6556726
p6552
V23
p6553
sV6556727
p6554
V9
sV6556728
p6555
V10
p6556
sV6556729
p6557
V15
p6558
sV6556898
p6559
V11
p6560
sV6100532
p6561
V4
sV6615648
p6562
V3
sV6615642
p6563
V0
sV6640841
p6564
V3
sV6643639
p6565
V111
p6566
sV6100530
p6567
V6
sV6123724
p6568
V0
sV6123725
p6569
V0
sV6123726
p6570
V0
sV6123720
p6571
V0
sV6123721
p6572
V0
sV6123722
p6573
V0
sV6123723
p6574
V0
sV6123728
p6575
V0
sV6123729
p6576
V0
sV6668856
p6577
V990
p6578
sV6668857
p6579
V1000
p6580
sV6668854
p6581
V730
p6582
sV6668855
p6583
V739
p6584
sV6668852
p6585
V103
p6586
sV6668853
p6587
V664
p6588
sV6668851
p6589
V106
p6590
sV6668858
p6591
V30
p6592
sV6668859
p6593
V28
p6594
sV6609970
p6595
V108
p6596
sV5164210
p6597
V13
p6598
sV5164214
p6599
V10
p6600
sV6609979
p6601
V35
p6602
sV5164218
p6603
V14
p6604
sV6228891
p6605
V1
sV6228671
p6606
V4
sV6557415
p6607
V10
p6608
sV6656376
p6609
V2
sV6547303
p6610
V17
p6611
sV6638578
p6612
V0
sV6658003
p6613
V1
sV6638575
p6614
V0
sV6658008
p6615
V0
sV6546432
p6616
V38
p6617
sV4672309
p6618
V10
p6619
sV6590226
p6620
V291
p6621
sV5158945
p6622
V0
sV5158944
p6623
V0
sV5158947
p6624
V9
sV5158946
p6625
V13
p6626
sV5158941
p6627
V0
sV5158940
p6628
V0
sV5158943
p6629
V10
p6630
sV5158942
p6631
V6
sV5158949
p6632
V0
sV5158948
p6633
V0
sV6658263
p6634
V0
sV6614699
p6635
V12
p6636
sV6657207
p6637
V0
sV6638315
p6638
V0
sV6268695
p6639
V14
p6640
sV5721518
p6641
V30
p6642
sV6553875
p6643
V12
p6644
sV5721514
p6645
V82
p6646
sV5721510
p6647
V16
p6648
sV6123694
p6649
V39
p6650
sV6589112
p6651
V0
sV6533751
p6652
V174
p6653
sV6589118
p6654
V19
p6655
sV6599558
p6656
V1
sV6599559
p6657
V1
sV6599556
p6658
V1
sV6599557
p6659
V1
sV6599554
p6660
V1
sV6599555
p6661
V1
sV6599552
p6662
V1
sV6599553
p6663
V1
sV6599550
p6664
V1
sV6599551
p6665
V1
sV6615345
p6666
V9
sV6521418
p6667
V19
p6668
sV6630572
p6669
V1110
p6670
sV6544481
p6671
V40
p6672
sV6555329
p6673
V23
p6674
sV6555253
p6675
V21
p6676
sV6555255
p6677
V18
p6678
sV6555254
p6679
V22
p6680
sV6555257
p6681
V0
sV6555256
p6682
V30
p6683
sV6555259
p6684
V26
p6685
sV6555258
p6686
V40
p6687
sV6641724
p6688
V0
sV6554250
p6689
V10
p6690
sV6554255
p6691
V2
sV6615123
p6692
V1
sV6549226
p6693
V54
p6694
sV6615128
p6695
V18
p6696
sV6620980
p6697
V47
p6698
sV6620981
p6699
V47
p6700
sV6545689
p6701
V161
p6702
sV6620983
p6703
V46
p6704
sV6620984
p6705
V46
p6706
sV6620985
p6707
V45
p6708
sV6620986
p6709
V47
p6710
sV6620987
p6711
V43
p6712
sV6545683
p6713
V375
p6714
sV6620989
p6715
V45
p6716
sV6643844
p6717
V37
p6718
sV6553915
p6719
V14
p6720
sV6614834
p6721
V3
sV6590092
p6722
V0
sV6318024
p6723
V1
sV6557626
p6724
V140
p6725
sV6557627
p6726
V148
p6727
sV6557625
p6728
V73
p6729
sV6557628
p6730
V145
p6731
sV6557629
p6732
V86
p6733
sV6227836
p6734
V13
p6735
sV6623761
p6736
V0
sV6623760
p6737
V0
sV6623763
p6738
V14
p6739
sV6607070
p6740
V14
p6741
sV6623765
p6742
V10
p6743
sV6623764
p6744
V7
sV6607075
p6745
V6
sV6623766
p6746
V24
p6747
sV6623769
p6748
V2
sV6623768
p6749
V3
sV6549218
p6750
V140
p6751
sV6549219
p6752
V70
p6753
sV6549210
p6754
V51
p6755
sV6549211
p6756
V21
p6757
sV6549212
p6758
V20
p6759
sV6549213
p6760
V27
p6761
sV6549214
p6762
V5
sV6549215
p6763
V57
p6764
sV6549216
p6765
V64
p6766
sV6549217
p6767
V141
p6768
sV6227954
p6769
V12
p6770
sV6554820
p6771
V5
sV6228469
p6772
V0
sV6188511
p6773
V16
p6774
sV6642396
p6775
V1
sV5821183
p6776
V11
p6777
sV6542085
p6778
V18
p6779
sV6653205
p6780
V0
sV6542081
p6781
V0
sV6637791
p6782
V0
sV6547117
p6783
V12
p6784
sV6589274
p6785
V65
p6786
sV6599303
p6787
V14
p6788
sV6268665
p6789
V3
sV6599301
p6790
V15
p6791
sV6599300
p6792
V5
sV6551835
p6793
V22
p6794
sV6599306
p6795
V13
p6796
sV6599305
p6797
V10
p6798
sV6599304
p6799
V10
p6800
sV6551838
p6801
V11
p6802
sV6657921
p6803
V0
sV6642357
p6804
V14
p6805
sV6637864
p6806
V33
p6807
sV6553885
p6808
V9
sV6553880
p6809
V3
sV6123767
p6810
V0
sV6571526
p6811
V170
p6812
sV6614753
p6813
V0
sV6614757
p6814
V0
sV4412539
p6815
V21
p6816
sV4412531
p6817
V37
p6818
sV6628779
p6819
V99
p6820
sV6628778
p6821
V123
p6822
sV6521315
p6823
V11
p6824
sV6628773
p6825
V117
p6826
sV6628772
p6827
V34
p6828
sV6628771
p6829
V0
sV6628770
p6830
V59
p6831
sV6628777
p6832
V127
p6833
sV6628776
p6834
V62
p6835
sV6628775
p6836
V72
p6837
sV6628774
p6838
V95
p6839
sV6590054
p6840
V1
sV6554624
p6841
V13
p6842
sV6610182
p6843
V49
p6844
sV6552755
p6845
V34
p6846
sV6552754
p6847
V7
sV6552757
p6848
V11
p6849
sV6552756
p6850
V24
p6851
sV6552750
p6852
V24
p6853
sV6552753
p6854
V24
p6855
sV6552752
p6856
V13
p6857
sV6090996
p6858
V3
sV6552759
p6859
V21
p6860
sV6552758
p6861
V3
sV6555390
p6862
V36
p6863
sV6555391
p6864
V36
p6865
sV6555392
p6866
V5
sV6555393
p6867
V27
p6868
sV6555394
p6869
V32
p6870
sV6555395
p6871
V23
p6872
sV6555396
p6873
V9
sV6555397
p6874
V31
p6875
sV6555398
p6876
V14
p6877
sV6555399
p6878
V12
p6879
sV6610455
p6880
V136
p6881
sV6610326
p6882
V86
p6883
sV6550289
p6884
V337
p6885
sV6550288
p6886
V358
p6887
sV6550285
p6888
V885
p6889
sV6550284
p6890
V226
p6891
sV6550287
p6892
V350
p6893
sV6550286
p6894
V312
p6895
sV6550281
p6896
V250
p6897
sV6550280
p6898
V349
p6899
sV6550283
p6900
V272
p6901
sV6550282
p6902
V273
p6903
sV6644383
p6904
V78
p6905
sV6100694
p6906
V38
p6907
sV6205624
p6908
V24
p6909
sV6609539
p6910
V13
p6911
sV6519778
p6912
V168
p6913
sV6519779
p6914
V326
p6915
sV6519772
p6916
V18
p6917
sV6519770
p6918
V172
p6919
sV6519771
p6920
V132
p6921
sV6519776
p6922
V106
p6923
sV6519777
p6924
V135
p6925
sV6519774
p6926
V117
p6927
sV6519775
p6928
V91
p6929
sV6578850
p6930
V141
p6931
sV6589916
p6932
V0
sV6589912
p6933
V0
sV6637242
p6934
V94
p6935
sV6599090
p6936
V99
p6937
sV6599095
p6938
V100
p6939
sV6556876
p6940
V8
sV6615664
p6941
V0
sV6640866
p6942
V0
sV6615660
p6943
V0
sV6615668
p6944
V1
sV6029268
p6945
V131
p6946
sV6228074
p6947
V36
p6948
sV6123708
p6949
V24
p6950
sV6123709
p6951
V177
p6952
sV6123706
p6953
V85
p6954
sV6123707
p6955
V12
p6956
sV6123704
p6957
V74
p6958
sV6123705
p6959
V27
p6960
sV6123702
p6961
V0
sV6123703
p6962
V191
p6963
sV6123700
p6964
V16
p6965
sV6123701
p6966
V0
sV6090677
p6967
V7
sV6228617
p6968
V33
p6969
sV6655991
p6970
V2
sV6546638
p6971
V7
sV5954450
p6972
V10
p6973
sV6557470
p6974
V6
sV5954458
p6975
V12
p6976
sV6629415
p6977
V77
p6978
sV6629411
p6979
V180
p6980
sV6656334
p6981
V2
sV6629413
p6982
V174
p6983
sV6656317
p6984
V4
sV6547323
p6985
V7
sV6547327
p6986
V15
p6987
sV6550219
p6988
V132
p6989
sV6638082
p6990
V0
sV6546456
p6991
V7
sV6637302
p6992
V591
p6993
sV6637303
p6994
V276
p6995
sV6637300
p6996
V46
p6997
sV6637301
p6998
V46
p6999
sV6637304
p7000
V79
p7001
sV6637308
p7002
V348
p7003
sV6637309
p7004
V283
p7005
sV6642169
p7006
V1
sV5282988
p7007
V9
sV5282983
p7008
V5
sV5282982
p7009
V3
sV5282981
p7010
V7
sV5282980
p7011
V17
p7012
sV5282987
p7013
V1
sV5282986
p7014
V17
p7015
sV5282985
p7016
V9
sV5282984
p7017
V14
p7018
sV6657269
p7019
V0
sV6658285
p7020
V1
sV6657261
p7021
V0
sV6658045
p7022
V1
sV5721534
p7023
V0
sV5721530
p7024
V1
sV6642297
p7025
V1
sV5721538
p7026
V0
sV6638555
p7027
V0
sV6589132
p7028
V11
p7029
sV6090886
p7030
V32
p7031
sV6684134
p7032
V35
p7033
sV6078564
p7034
V33
p7035
sV6613891
p7036
V0
sV6205704
p7037
V25
p7038
sV6613895
p7039
V0
sV6641127
p7040
V0
sV6638885
p7041
V1
sV5973808
p7042
V0
sV6615492
p7043
V7
sV6644733
p7044
V43
p7045
sV6521432
p7046
V5
sV6029381
p7047
V250
p7048
sV6029386
p7049
V182
p7050
sV5241589
p7051
V20
p7052
sV6614816
p7053
V2
sV6614818
p7054
V0
sV5241585
p7055
V37
p7056
sV6318003
p7057
V0
sV6593580
p7058
V87
p7059
sV6557642
p7060
V18
p7061
sV6557643
p7062
V20
p7063
sV6557644
p7064
V25
p7065
sV6557645
p7066
V19
p7067
sV6557646
p7068
V17
p7069
sV6557647
p7070
V149
p7071
sV6557648
p7072
V149
p7073
sV6557649
p7074
V73
p7075
sV6549185
p7076
V49
p7077
sV6029306
p7078
V17
p7079
sV6227852
p7080
V9
sV6607055
p7081
V3
sV6607050
p7082
V2
sV5954591
p7083
V0
sV6602750
p7084
V78
p7085
sV5954599
p7086
V3
sV6227930
p7087
V17
p7088
sV6227938
p7089
V18
p7090
sV6553185
p7091
V23
p7092
sV6553180
p7093
V119
p7094
sV6228445
p7095
V1
sV6188539
p7096
V8
sV6549981
p7097
V66
p7098
sV6549230
p7099
V79
p7100
sV4412563
p7101
V10
p7102
sV6656503
p7103
V0
sV6551858
p7104
V132
p7105
sV6599326
p7106
V60
p7107
sV6599322
p7108
V60
p7109
sV4079886
p7110
V4
sV6657901
p7111
V0
sV6571551
p7112
V113
p7113
sV5721490
p7114
V27
p7115
sV5721492
p7116
V19
p7117
sV5721494
p7118
V81
p7119
sV5721496
p7120
V95
p7121
sV5721498
p7122
V11
p7123
sV5053793
p7124
V8
sV5158868
p7125
V0
sV6546847
p7126
V22
p7127
sV6546841
p7128
V19
p7129
sV6571541
p7130
V99
p7131
sV6628755
p7132
V7
sV6628754
p7133
V0
sV6628757
p7134
V6
sV6628756
p7135
V15
p7136
sV6628752
p7137
V6
sV6628759
p7138
V15
p7139
sV6628758
p7140
V15
p7141
sV6521333
p7142
V40
p7143
sV6590078
p7144
V32
p7145
sV6590072
p7146
V8
sV6641825
p7147
V20
p7148
sV6554604
p7149
V34
p7150
sV6554355
p7151
V6
sV6554350
p7152
V4
sV6317885
p7153
V1
sV6640669
p7154
V7
sV5158865
p7155
V0
sV6143607
p7156
V52
p7157
sV6143600
p7158
V77
p7159
sV6645105
p7160
V53
p7161
sV6610308
p7162
V75
p7163
sV6078358
p7164
V1
sV6589932
p7165
V0
sV6589935
p7166
V0
sV6644072
p7167
V52
p7168
sV6615687
p7169
V6
sV6644504
p7170
V77
p7171
sV6640881
p7172
V2
sV6029248
p7173
V146
p7174
sV6609511
p7175
V455
p7176
sV6228589
p7177
V13
p7178
sV6607551
p7179
V13
p7180
sV6228581
p7181
V24
p7182
sV4584171
p7183
V28
p7184
sV6123768
p7185
V5
sV6123769
p7186
V0
sV6123760
p7187
V36
p7188
sV6123761
p7189
V34
p7190
sV6123762
p7191
V7
sV6123763
p7192
V0
sV6123764
p7193
V0
sV6123765
p7194
V7
sV6123766
p7195
V6
sV6557184
p7196
V12
p7197
sV6556854
p7198
V9
sV6549907
p7199
V129
p7200
sV5053676
p7201
V16
p7202
sV6557327
p7203
V0
sV6557459
p7204
V4
sV6546616
p7205
V1
sV5954471
p7206
V9
sV6641100
p7207
V2
sV6228052
p7208
V154
p7209
sV6656996
p7210
V2
sV6656997
p7211
V0
sV6656994
p7212
V24
p7213
sV6656995
p7214
V0
sV6656992
p7215
V0
sV6656993
p7216
V0
sV6656990
p7217
V5
sV6656991
p7218
V4
sV6546476
p7219
V16
p7220
sV6658733
p7221
V0
sV6590262
p7222
V45
p7223
sV6188491
p7224
V0
sV6637670
p7225
V0
sV6627770
p7226
V50
p7227
sV6228630
p7228
V0
sV6612519
p7229
V97
p7230
sV6090651
p7231
V14
p7232
sV6228638
p7233
V0
sV6090659
p7234
V3
sV6612435
p7235
V61
p7236
sV6612437
p7237
V0
sV6612436
p7238
V16
p7239
sV6612439
p7240
V0
sV6612438
p7241
V0
sV6589337
p7242
V10
p7243
sV6589333
p7244
V0
sV6612510
p7245
V21
p7246
sV5721550
p7247
V0
sV6627779
p7248
V20
p7249
sV5721554
p7250
V19
p7251
sV5721558
p7252
V0
sV6612516
p7253
V4
sV6078508
p7254
V0
sV6627829
p7255
V2
sV6531976
p7256
V85
p7257
sV6531977
p7258
V81
p7259
sV6531975
p7260
V76
p7261
sV6531978
p7262
V94
p7263
sV6531979
p7264
V94
p7265
sV6644252
p7266
V35
p7267
sV6205726
p7268
V20
p7269
sV6641458
p7270
V2
sV6657248
p7271
V0
sV6533828
p7272
V183
p7273
sV6545648
p7274
V195
p7275
sV6022471
p7276
V28
p7277
sV6022478
p7278
V90
p7279
sV6521450
p7280
V5
sV6521459
p7281
V14
p7282
sV6554164
p7283
V0
sV6554161
p7284
V0
sV6597938
p7285
V29
p7286
sV6597939
p7287
V26
p7288
sV6597936
p7289
V54
p7290
sV6597937
p7291
V12
p7292
sV6597934
p7293
V261
p7294
sV6597935
p7295
V6
sV6597932
p7296
V65
p7297
sV6597933
p7298
V71
p7299
sV6597930
p7300
V552
p7301
sV6597931
p7302
V59
p7303
sV6614870
p7304
V10
p7305
sV6618149
p7306
V74
p7307
sV6644756
p7308
V15
p7309
sV4672318
p7310
V21
p7311
sV6630952
p7312
V139
p7313
sV6627393
p7314
V0
sV6552833
p7315
V181
p7316
sV6227876
p7317
V0
sV6658898
p7318
V0
sV6627189
p7319
V0
sV6609700
p7320
V452
p7321
sV6609709
p7322
V369
p7323
sV6227915
p7324
V0
sV6656291
p7325
V0
sV6521856
p7326
V9
sV6627132
p7327
V5
sV6627649
p7328
V0
sV6551875
p7329
V63
p7330
sV6090821
p7331
V10
p7332
sV6551871
p7333
V40
p7334
sV6652001
p7335
V0
sV6551879
p7336
V67
p7337
sV6551878
p7338
V129
p7339
sV5053806
p7340
V1
sV6609853
p7341
V431
p7342
sV6571566
p7343
V36
p7344
sV6658382
p7345
V0
sV6637711
p7346
V0
sV4412571
p7347
V26
p7348
sV6546867
p7349
V5
sV6138823
p7350
V4
sV6138828
p7351
V6
sV6638276
p7352
V7
sV6658561
p7353
V0
sV6642310
p7354
V7
sV6637538
p7355
V24
p7356
sV6590016
p7357
V0
sV6610149
p7358
V74
p7359
sV6641663
p7360
V0
sV6554370
p7361
V16
p7362
sV6554376
p7363
V1
sV6552793
p7364
V3
sV6640643
p7365
V15
p7366
sV6610491
p7367
V113
p7368
sV6610362
p7369
V95
p7370
sV4696097
p7371
V41
p7372
sV6599707
p7373
V0
sV6599706
p7374
V1
sV6599705
p7375
V0
sV6599704
p7376
V0
sV6599703
p7377
V0
sV6599702
p7378
V0
sV6599701
p7379
V0
sV6599700
p7380
V0
sV6599709
p7381
V0
sV6599708
p7382
V1
sV6521712
p7383
V9
sV6593429
p7384
V90
p7385
sV6638836
p7386
V0
sV6615516
p7387
V2
sV6615511
p7388
V3
sV6554169
p7389
V2
sV6554080
p7390
V3
sV6554085
p7391
V0
sV6607392
p7392
V0
sV6607396
p7393
V0
sV6611368
p7394
V0
sV6611369
p7395
V0
sV6611360
p7396
V5
sV6611361
p7397
V2
sV6611362
p7398
V7
sV6611363
p7399
V3
sV6611364
p7400
V0
sV6611365
p7401
V0
sV6611366
p7402
V71
p7403
sV6611367
p7404
V72
p7405
sV6029229
p7406
V8
sV6029220
p7407
V30
p7408
sV6643699
p7409
V122
p7410
sV5241629
p7411
V6
sV5241625
p7412
V0
sV5241621
p7413
V109
p7414
sV6123742
p7415
V19
p7416
sV6123743
p7417
V8
sV6123740
p7418
V0
sV6123741
p7419
V0
sV6123746
p7420
V0
sV6614875
p7421
V0
sV6123744
p7422
V0
sV6123745
p7423
V9
sV6123748
p7424
V12
p7425
sV6123749
p7426
V23
p7427
sV6550136
p7428
V143
p7429
sV6556832
p7430
V4
sV6317749
p7431
V5
sV6546671
p7432
V53
p7433
sV6557305
p7434
V3
sV6651969
p7435
V0
sV5954416
p7436
V4
sV6626728
p7437
V0
sV6546499
p7438
V0
sV6546498
p7439
V11
p7440
sV6546497
p7441
V44
p7442
sV6546496
p7443
V94
p7444
sV6546495
p7445
V0
sV6546494
p7446
V13
p7447
sV6546493
p7448
V0
sV6546492
p7449
V0
sV6546491
p7450
V1
sV6546490
p7451
V6
sV6590244
p7452
V173
p7453
sV6188472
p7454
V36
p7455
sV6642123
p7456
V15
p7457
sV6579049
p7458
V71
p7459
sV5282943
p7460
V0
sV5282942
p7461
V4
sV5282941
p7462
V94
p7463
sV5282940
p7464
V77
p7465
sV6201443
p7466
V102
p7467
sV6201448
p7468
V92
p7469
sV6612459
p7470
V0
sV6612458
p7471
V21
p7472
sV6612453
p7473
V0
sV6612452
p7474
V0
sV6612451
p7475
V13
p7476
sV6612450
p7477
V3
sV6612457
p7478
V11
p7479
sV6612456
p7480
V7
sV6612455
p7481
V0
sV6612454
p7482
V0
sV6188619
p7483
V27
p7484
sV4672264
p7485
V25
p7486
sV6589310
p7487
V74
p7488
sV6589313
p7489
V113
p7490
sV6589317
p7491
V87
p7492
sV6599284
p7493
V50
p7494
sV6652921
p7495
V1426
p7496
sV6599289
p7497
V50
p7498
sV5053713
p7499
V41
p7500
sV6657003
p7501
V0
sV6657002
p7502
V0
sV6657001
p7503
V0
sV6658715
p7504
V0
sV6657007
p7505
V0
sV6657006
p7506
V192
p7507
sV6657005
p7508
V158
p7509
sV6657004
p7510
V0
sV6638045
p7511
V1
sV6657009
p7512
V0
sV6657008
p7513
V0
sV6589174
p7514
V89
p7515
sV6078528
p7516
V0
sV6533737
p7517
V187
p7518
sV6205742
p7519
V37
p7520
sV6531998
p7521
V97
p7522
sV6531999
p7523
V95
p7524
sV6627929
p7525
V2
sV6656713
p7526
V5
sV6627927
p7527
V1
sV6627926
p7528
V1
sV6627925
p7529
V0
sV6205748
p7530
V36
p7531
sV6627923
p7532
V0
sV6531991
p7533
V93
p7534
sV6627921
p7535
V0
sV6627920
p7536
V0
sV5053610
p7537
V17
p7538
sV6614674
p7539
V11
p7540
sV6555339
p7541
V16
p7542
sV6533842
p7543
V203
p7544
sV6640786
p7545
V76
p7546
sV6641786
p7547
V0
sV6201496
p7548
V231
p7549
sV6545665
p7550
V39
p7551
sV6022452
p7552
V13
p7553
sV6022456
p7554
V3
sV6544396
p7555
V244
p7556
sV6544391
p7557
V101
p7558
sV6545910
p7559
V0
sV6614854
p7560
V64
p7561
sV6614850
p7562
V31
p7563
sV6554146
p7564
V6
sV6554415
p7565
V0
sV6554410
p7566
V0
sV6614858
p7567
V62
p7568
sV6554140
p7569
V3
sV6618161
p7570
V78
p7571
sV6618160
p7572
V75
p7573
sV6615185
p7574
V0
sV6620003
p7575
V78
p7576
sV6609493
p7577
V390
p7578
sV6227892
p7579
V4
sV6522176
p7580
V16
p7581
sV6609727
p7582
V572
p7583
sV6615726
p7584
V0
sV6228095
p7585
V12
p7586
sV6552817
p7587
V144
p7588
sV6549149
p7589
V102
p7590
sV6549144
p7591
V97
p7592
sV6607184
p7593
V13
p7594
sV6627111
p7595
V14
p7596
sV6227798
p7597
V21
p7598
sV6551899
p7599
V122
p7600
sV6551898
p7601
V111
p7602
sV6551897
p7603
V191
p7604
sV6551896
p7605
V188
p7606
sV6551895
p7607
V102
p7608
sV6551894
p7609
V73
p7610
sV6551893
p7611
V119
p7612
sV6551892
p7613
V155
p7614
sV6551891
p7615
V0
sV6551890
p7616
V201
p7617
sV6609871
p7618
V302
p7619
sV6615396
p7620
V0
sV6653191
p7621
V31
p7622
sV6571589
p7623
V2
sV6658367
p7624
V0
sV6571581
p7625
V38
p7626
sV6546805
p7627
V21
p7628
sV4412555
p7629
V16
p7630
sV6542138
p7631
V0
sV6542139
p7632
V0
sV6542130
p7633
V6
sV6542131
p7634
V15
p7635
sV6542132
p7636
V0
sV6542133
p7637
V14
p7638
sV6542134
p7639
V0
sV6542135
p7640
V0
sV6542136
p7641
V8
sV6542137
p7642
V5
sV6638256
p7643
V0
sV6638700
p7644
V0
sV6628791
p7645
V45
p7646
sV6628790
p7647
V21
p7648
sV6590030
p7649
V12
p7650
sV6590036
p7651
V25
p7652
sV6637558
p7653
V2
sV6637554
p7654
V1
sV6641647
p7655
V1
sV6641310
p7656
V0
sV6626993
p7657
V1
sV4079790
p7658
V11
p7659
sV6533691
p7660
V189
p7661
sV6090933
p7662
V25
p7663
sV6610335
p7664
V81
p7665
sV6205684
p7666
V44
p7667
sV6554310
p7668
V1
sV6554315
p7669
V0
sV6579166
p7670
V98
p7671
sV6554319
p7672
V0
sV6551793
p7673
V71
p7674
sV6551796
p7675
V8
sV6593406
p7676
V125
p7677
sV6555404
p7678
V8
sV6555405
p7679
V34
p7680
sV6555406
p7681
V27
p7682
sV6555407
p7683
V27
p7684
sV6555400
p7685
V36
p7686
sV6555401
p7687
V34
p7688
sV6555402
p7689
V33
p7690
sV6555403
p7691
V26
p7692
sV6589975
p7693
V2
sV6555408
p7694
V35
p7695
sV6644095
p7696
V124
p7697
sV6637256
p7698
V145
p7699
sV6610344
p7700
V80
p7701
sV6599334
p7702
V59
p7703
sV6611434
p7704
V3
sV6611435
p7705
V27
p7706
sV6611436
p7707
V0
sV6611437
p7708
V23
p7709
sV6611431
p7710
V2
sV6611432
p7711
V7
sV6611433
p7712
V19
p7713
sV6607375
p7714
V14
p7715
sV6644238
p7716
V95
p7717
sV6611439
p7718
V32
p7719
sV6029208
p7720
V6
sV6554061
p7721
V32
p7722
sV6637258
p7723
V131
p7724
sV5241601
p7725
V32
p7726
sV5241606
p7727
V8
sV6607511
p7728
V4
sV6640969
p7729
V3
sV6607517
p7730
V20
p7731
sV4672291
p7732
V10
p7733
sV6557140
p7734
V5
sV6550110
p7735
V483
p7736
sV6556811
p7737
V1
sV6317767
p7738
V4
sV6627564
p7739
V2
sV5954430
p7740
V25
p7741
sV6557361
p7742
V14
p7743
sV6557492
p7744
V4
sV6651904
p7745
V0
sV6626745
p7746
V0
sV6188459
p7747
V26
p7748
sV5282969
p7749
V9
sV6599126
p7750
V80
p7751
sV6599122
p7752
V78
p7753
sV6599121
p7754
V9
sV6599120
p7755
V9
sV6644856
p7756
V49
p7757
sV5282967
p7758
V24
p7759
sV5282966
p7760
V18
p7761
sV5164298
p7762
V14
p7763
sV6611521
p7764
V33
p7765
sV6201468
p7766
V47
p7767
sV5164290
p7768
V30
p7769
sV6090695
p7770
V1
sV6201463
p7771
V64
p7772
sV6589373
p7773
V60
p7774
sV6589377
p7775
V83
p7776
sV6656486
p7777
V0
sV6652903
p7778
V676
p7779
sV6547297
p7780
V8
sV6547291
p7781
V21
p7782
sV6638066
p7783
V40
p7784
sV6599269
p7785
V99
p7786
sV6638060
p7787
V1
sV6599264
p7788
V99
p7789
sV6658778
p7790
V0
sV6657024
p7791
V9
sV6657026
p7792
V0
sV6657021
p7793
V0
sV6657020
p7794
V0
sV6657023
p7795
V0
sV6657022
p7796
V0
sV6589198
p7797
V21
p7798
sV6589194
p7799
V173
p7800
sV6589190
p7801
V119
p7802
sV6627909
p7803
V0
sV6627908
p7804
V0
sV6630594
p7805
V4
sV6627901
p7806
V1
sV6627900
p7807
V0
sV6627903
p7808
V0
sV6627902
p7809
V2
sV6627905
p7810
V0
sV6627904
p7811
V0
sV6627907
p7812
V3
sV6627906
p7813
V1
sV5053635
p7814
V21
p7815
sV6612475
p7816
V16
p7817
sV6612474
p7818
V0
sV6612477
p7819
V3
sV6612476
p7820
V0
sV6612471
p7821
V0
sV6612470
p7822
V0
sV6612473
p7823
V0
sV6612472
p7824
V0
sV6612479
p7825
V24
p7826
sV6612478
p7827
V1
sV6657286
p7828
V0
sV6658196
p7829
V0
sV6545605
p7830
V340
p7831
sV5872071
p7832
V7
sV6640233
p7833
V48
p7834
sV6554435
p7835
V18
p7836
sV6554430
p7837
V8
sV4672336
p7838
V0
sV6589970
p7839
V2
sV6554121
p7840
V0
sV6554125
p7841
V10
p7842
sV6644937
p7843
V27
p7844
sV6578991
p7845
V484
p7846
sV6544516
p7847
V9
sV6522112
p7848
V37
p7849
sV6609745
p7850
V255
p7851
sV6549167
p7852
V171
p7853
sV6640904
p7854
V0
sV6552874
p7855
V107
p7856
sV6552879
p7857
V73
p7858
sV6656259
p7859
V4
sV6594194
p7860
V84
p7861
sV6627681
p7862
V1
sV6549298
p7863
V32
p7864
sV6627179
p7865
V3
sV6609817
p7866
V198
p7867
sV6228206
p7868
V13
p7869
sV6571616
p7870
V168
p7871
sV4412579
p7872
V1
sV6546823
p7873
V9
sV6546829
p7874
V32
p7875
sV6542112
p7876
V8
sV6542113
p7877
V17
p7878
sV6542110
p7879
V13
p7880
sV6542111
p7881
V19
p7882
sV6542116
p7883
V24
p7884
sV6542117
p7885
V18
p7886
sV6542114
p7887
V22
p7888
sV6542115
p7889
V25
p7890
sV6542118
p7891
V22
p7892
sV6542119
p7893
V24
p7894
sV6547195
p7895
V5
sV6621024
p7896
V36
p7897
sV6621025
p7898
V47
p7899
sV6621026
p7900
V45
p7901
sV6621020
p7902
V45
p7903
sV6621021
p7904
V42
p7905
sV6621022
p7906
V29
p7907
sV6621023
p7908
V34
p7909
sV6638720
p7910
V1
sV6621028
p7911
V45
p7912
sV6621029
p7913
V8
sV6637576
p7914
V9
sV5721382
p7915
V2
sV5721386
p7916
V24
p7917
sV5721435
p7918
V86
p7919
sV5721431
p7920
V0
sV6090912
p7921
V8
sV6641624
p7922
V1
sV6090918
p7923
V3
sV6078480
p7924
V21
p7925
sV6533677
p7926
V145
p7927
sV5954296
p7928
V0
sV3942798
p7929
V46
p7930
sV3942794
p7931
V47
p7932
sV3942790
p7933
V34
p7934
sV6521536
p7935
V14
p7936
sV6521820
p7937
V73
p7938
sV6636515
p7939
V0
sV6610102
p7940
V142
p7941
sV6553910
p7942
V1
sV6614130
p7943
V0
sV6579103
p7944
V8
sV6610108
p7945
V11
p7946
sV6554330
p7947
V0
sV6615557
p7948
V0
sV6531989
p7949
V94
p7950
sV6531988
p7951
V86
p7952
sV6143593
p7953
V0
sV6677193
p7954
V466
p7955
sV6531982
p7956
V76
p7957
sV6589146
p7958
V37
p7959
sV6611418
p7960
V35
p7961
sV6611419
p7962
V35
p7963
sV6611416
p7964
V35
p7965
sV6611417
p7966
V36
p7967
sV6611414
p7968
V36
p7969
sV6611415
p7970
V35
p7971
sV6611412
p7972
V37
p7973
sV6611413
p7974
V54
p7975
sV6611410
p7976
V55
p7977
sV6611411
p7978
V58
p7979
sV5241661
p7980
V56
p7981
sV6554594
p7982
V0
sV5241665
p7983
V0
sV5241669
p7984
V43
p7985
sV6656830
p7986
V23
p7987
sV6552998
p7988
V51
p7989
sV6552992
p7990
V47
p7991
sV6557162
p7992
V1
sV4672229
p7993
V22
p7994
sV6317705
p7995
V0
sV6607356
p7996
V15
p7997
sV6607354
p7998
V17
p7999
sV6607350
p8000
V12
p8001
sV6550171
p8002
V113
p8003
sV6637534
p8004
V2
sV6593889
p8005
V12
p8006
sV4672013
p8007
V24
p8008
sV6651924
p8009
V10
p8010
sV6627546
p8011
V0
sV6557349
p8012
V5
sV5954569
p8013
V0
sV6549334
p8014
V148
p8015
sV6626768
p8016
V0
sV6519800
p8017
V96
p8018
sV6519801
p8019
V98
p8020
sV6519802
p8021
V100
p8022
sV6519803
p8023
V97
p8024
sV6519804
p8025
V98
p8026
sV6519805
p8027
V82
p8028
sV6519806
p8029
V95
p8030
sV6519807
p8031
V98
p8032
sV6607536
p8033
V23
p8034
sV6188435
p8035
V20
p8036
sV6533588
p8037
V139
p8038
sV6091092
p8039
V0
sV6599100
p8040
V99
p8041
sV6599105
p8042
V29
p8043
sV6599107
p8044
V15
p8045
sV6599106
p8046
V29
p8047
sV6599109
p8048
V30
p8049
sV6599108
p8050
V27
p8051
sV6602616
p8052
V18
p8053
sV6589427
p8054
V174
p8055
sV6589357
p8056
V76
p8057
sV6589353
p8058
V29
p8059
sV6091164
p8060
V20
p8061
sV6599244
p8062
V93
p8063
sV6599242
p8064
V20
p8065
sV6599243
p8066
V15
p8067
sV6599240
p8068
V16
p8069
sV6599241
p8070
V10
p8071
sV6599249
p8072
V99
p8073
sV6638003
p8074
V1
sV6638005
p8075
V12
p8076
sV6496068
p8077
V21
p8078
sV6496069
p8079
V21
p8080
sV6496064
p8081
V20
p8082
sV6496065
p8083
V35
p8084
sV6496066
p8085
V32
p8086
sV6496067
p8087
V29
p8088
sV6496061
p8089
V46
p8090
sV6658754
p8091
V0
sV6496063
p8092
V36
p8093
sV6547762
p8094
V18
p8095
sV6547763
p8096
V69
p8097
sV6547760
p8098
V54
p8099
sV6547761
p8100
V30
p8101
sV6547766
p8102
V70
p8103
sV6547767
p8104
V67
p8105
sV6547764
p8106
V69
p8107
sV6547765
p8108
V70
p8109
sV6627969
p8110
V1
sV6627968
p8111
V2
sV5158904
p8112
V0
sV6571426
p8113
V93
p8114
sV6091236
p8115
V0
sV6268635
p8116
V22
p8117
sV6091230
p8118
V0
sV6612499
p8119
V13
p8120
sV6612498
p8121
V0
sV6612497
p8122
V46
p8123
sV6612496
p8124
V3
sV6612495
p8125
V16
p8126
sV6612494
p8127
V0
sV6612493
p8128
V0
sV6612492
p8129
V0
sV6612491
p8130
V0
sV6612490
p8131
V0
sV6642527
p8132
V1
sV6590173
p8133
V46
p8134
sV4672048
p8135
V35
p8136
sV6545629
p8137
V11
p8138
sV6545624
p8139
V94
p8140
sV6641292
p8141
V0
sV6552797
p8142
V80
p8143
sV6614099
p8144
V0
sV6554450
p8145
V4
sV6546691
p8146
V77
p8147
sV6554100
p8148
V11
p8149
sV6554455
p8150
V15
p8151
sV6554105
p8152
V19
p8153
sV6614891
p8154
V0
sV6614893
p8155
V0
sV6614897
p8156
V0
sV6644912
p8157
V51
p8158
sV4079766
p8159
V3
sV6623780
p8160
V3
sV6544538
p8161
V145
p8162
sV6544531
p8163
V113
p8164
sV6636375
p8165
V0
sV6644660
p8166
V60
p8167
sV6553105
p8168
V43
p8169
sV6553100
p8170
V2
sV6549101
p8171
V67
p8172
sV6615766
p8173
V0
sV6552853
p8174
V136
p8175
sV6552857
p8176
V134
p8177
sV4696110
p8178
V65
p8179
sV6627156
p8180
V0
sV6609763
p8181
V109
p8182
sV5164319
p8183
V3
sV6609835
p8184
V249
p8185
sV5164314
p8186
V10
p8187
sV5164310
p8188
V12
p8189
sV6647363
p8190
V0
sV6647362
p8191
V63
p8192
sV6647361
p8193
V430
p8194
sV6546591
p8195
V0
sV6546594
p8196
V23
p8197
sV6647364
p8198
V42
p8199
sV4079802
p8200
V2
sV6656231
p8201
V1
sV6657183
p8202
V1
sV6658324
p8203
V2
sV4079840
p8204
V38
p8205
sV6549819
p8206
V49
p8207
sV6549813
p8208
V47
p8209
sV6637776
p8210
V0
sV4412483
p8211
V44
p8212
sV6589735
p8213
V0
sV6656587
p8214
V39
p8215
sV6657368
p8216
V0
sV6621009
p8217
V47
p8218
sV6621007
p8219
V47
p8220
sV6621004
p8221
V46
p8222
sV6621005
p8223
V48
p8224
sV6621002
p8225
V47
p8226
sV6621003
p8227
V48
p8228
sV6647588
p8229
V74
p8230
sV6141464
p8231
V0
sV5721413
p8232
V120
p8233
sV6090978
p8234
V10
p8235
sV6589655
p8236
V3
sV6078466
p8237
V0
sV6638217
p8238
V11
p8239
sV6638740
p8240
V6
sV6579294
p8241
V109
p8242
sV6078602
p8243
V1
sV6078606
p8244
V2
sV6551757
p8245
V11
p8246
sV6551752
p8247
V29
p8248
sV4696086
p8249
V6
sV6641353
p8250
V1
sV6553938
p8251
V5
sV6553934
p8252
V24
p8253
sV6610126
p8254
V28
p8255
sV6610120
p8256
V34
p8257
sV6553930
p8258
V5
sV4128236
p8259
V6
sV6644059
p8260
V100
p8261
sV6100549
p8262
V20
p8263
sV6100543
p8264
V29
p8265
sV6554405
p8266
V11
p8267
sV6627513
p8268
V2
sV6610389
p8269
V566
p8270
sV6597945
p8271
V13
p8272
sV6610380
p8273
V419
p8274
sV6611478
p8275
V28
p8276
sV6611479
p8277
V17
p8278
sV6522096
p8279
V18
p8280
sV6611470
p8281
V56
p8282
sV6611471
p8283
V54
p8284
sV6611472
p8285
V55
p8286
sV6611473
p8287
V60
p8288
sV6611474
p8289
V56
p8290
sV6611475
p8291
V37
p8292
sV6611476
p8293
V25
p8294
sV6611477
p8295
V7
sV6545546
p8296
V53
p8297
sV5241649
p8298
V13
p8299
sV5241645
p8300
V15
p8301
sV6641979
p8302
V0
sV6521776
p8303
V19
p8304
sV6557107
p8305
V1
sV6554710
p8306
V13
p8307
sV6658224
p8308
V0
sV6317722
p8309
V3
sV6611386
p8310
V48
p8311
sV6611387
p8312
V53
p8313
sV6611384
p8314
V52
p8315
sV6611385
p8316
V51
p8317
sV6607334
p8318
V7
sV6611383
p8319
V0
sV6611380
p8320
V67
p8321
sV6611381
p8322
V18
p8323
sV6607339
p8324
V20
p8325
sV6611388
p8326
V48
p8327
sV6611389
p8328
V48
p8329
sV4672030
p8330
V31
p8331
sV6643723
p8332
V123
p8333
sV4672039
p8334
V30
p8335
sV6554903
p8336
V0
sV6317584
p8337
V4
sV6589860
p8338
V2
sV6589868
p8339
V0
sV4672329
p8340
V0
sV5282929
p8341
V18
p8342
sV5282925
p8343
V9
sV5282924
p8344
V0
sV5282927
p8345
V28
p8346
sV5282926
p8347
V0
sV6558815
p8348
V560
p8349
sV6558816
p8350
V974
p8351
sV6558817
p8352
V994
p8353
sV6558811
p8354
V168
p8355
sV6599162
p8356
V75
p8357
sV6558818
p8358
V491
p8359
sV6599166
p8360
V79
p8361
sV6549315
p8362
V83
p8363
sV6549314
p8364
V16
p8365
sV6549317
p8366
V53
p8367
sV6549316
p8368
V48
p8369
sV6549311
p8370
V47
p8371
sV6549310
p8372
V51
p8373
sV6549313
p8374
V18
p8375
sV6549312
p8376
V20
p8377
sV6549319
p8378
V72
p8379
sV6549318
p8380
V13
p8381
sV6589409
p8382
V133
p8383
sV6589401
p8384
V9
sV6589405
p8385
V27
p8386
sV6599220
p8387
V5
sV6599221
p8388
V4
sV6599222
p8389
V25
p8390
sV6599223
p8391
V8
sV6599224
p8392
V8
sV6599225
p8393
V5
sV6599226
p8394
V10
p8395
sV6599227
p8396
V6
sV6599228
p8397
V3
sV6599229
p8398
V3
sV6496046
p8399
V1833
p8400
sV6496047
p8401
V2975
p8402
sV6496044
p8403
V1870
p8404
sV6496045
p8405
V3732
p8406
sV6638020
p8407
V1
sV6496048
p8408
V2976
p8409
sV6637909
p8410
V23
p8411
sV6547788
p8412
V49
p8413
sV6547789
p8414
V94
p8415
sV6547784
p8416
V66
p8417
sV6547785
p8418
V68
p8419
sV6547786
p8420
V62
p8421
sV6547787
p8422
V68
p8423
sV6547780
p8424
V40
p8425
sV6547781
p8426
V11
p8427
sV6547782
p8428
V44
p8429
sV6547783
p8430
V50
p8431
sV6599598
p8432
V1
sV6599599
p8433
V1
sV6599592
p8434
V1
sV6599593
p8435
V1
sV6599590
p8436
V0
sV6599591
p8437
V1
sV6599596
p8438
V1
sV6599597
p8439
V1
sV6599594
p8440
V1
sV6599595
p8441
V1
sV6546787
p8442
V18
p8443
sV6546781
p8444
V12
p8445
sV6542097
p8446
V10
p8447
sV6542096
p8448
V24
p8449
sV6542095
p8450
V14
p8451
sV6542094
p8452
V9
sV6542093
p8453
V7
sV6542092
p8454
V16
p8455
sV6542091
p8456
V4
sV6091219
p8457
V0
sV6542099
p8458
V11
p8459
sV6542098
p8460
V21
p8461
sV6642549
p8462
V0
sV6657798
p8463
V0
sV6590152
p8464
V115
p8465
sV6590406
p8466
V127
p8467
sV6657428
p8468
V0
sV6640763
p8469
V1
sV6521182
p8470
V20
p8471
sV6090892
p8472
V38
p8473
sV6555299
p8474
V29
p8475
sV6555298
p8476
V26
p8477
sV6555295
p8478
V25
p8479
sV6555294
p8480
V48
p8481
sV6555297
p8482
V45
p8483
sV6555296
p8484
V37
p8485
sV6555291
p8486
V26
p8487
sV6555290
p8488
V10
p8489
sV6555293
p8490
V35
p8491
sV6555292
p8492
V21
p8493
sV6610245
p8494
V44
p8495
sV6645046
p8496
V43
p8497
sV6554470
p8498
V5
sV6554475
p8499
V14
p8500
sV6642097
p8501
V33
p8502
sV6521984
p8503
V19
p8504
sV6615290
p8505
V0
sV6677168
p8506
V8
sV6255223
p8507
V0
sV6615035
p8508
V0
sV6615031
p8509
V0
sV6553120
p8510
V154
p8511
sV6553125
p8512
V159
p8513
sV6677161
p8514
V28
p8515
sV6627315
p8516
V0
sV5721454
p8517
V0
sV6643915
p8518
V93
p8519
sV6123747
p8520
V6
sV4696136
p8521
V15
p8522
sV6607474
p8523
V34
p8524
sV5721450
p8525
V0
sV6532007
p8526
V181
p8527
sV6532006
p8528
V194
p8529
sV6532005
p8530
V95
p8531
sV6532004
p8532
V194
p8533
sV6532003
p8534
V93
p8535
sV6532002
p8536
V97
p8537
sV6532001
p8538
V100
p8539
sV6532000
p8540
V95
p8541
sV6532009
p8542
V189
p8543
sV6532008
p8544
V164
p8545
sV6609781
p8546
V429
p8547
sV6546578
p8548
V32
p8549
sV6546574
p8550
V0
sV6546575
p8551
V2
sV6546576
p8552
V19
p8553
sV6546577
p8554
V12
p8555
sV6546570
p8556
V30
p8557
sV6546571
p8558
V10
p8559
sV6546572
p8560
V6
sV6546573
p8561
V56
p8562
sV6658907
p8563
V0
sV6658304
p8564
V0
sV6653135
p8565
V17
p8566
sV6658652
p8567
V0
sV6657163
p8568
V0
sV6549878
p8569
V154
p8570
sV6590367
p8571
V174
p8572
sV6227776
p8573
V0
sV6268657
p8574
V0
sV6657303
p8575
V39
p8576
sV6589092
p8577
V14
p8578
sV6589093
p8579
V12
p8580
sV6589090
p8581
V97
p8582
sV6589091
p8583
V99
p8584
sV6589096
p8585
V28
p8586
sV6589097
p8587
V21
p8588
sV6589094
p8589
V16
p8590
sV6589095
p8591
V0
sV6590098
p8592
V0
sV6590099
p8593
V0
sV5721470
p8594
V84
p8595
sV5721478
p8596
V5
sV6090959
p8597
V6
sV6533635
p8598
V82
p8599
sV6090950
p8600
V2
sV6547045
p8601
V16
p8602
sV6589677
p8603
V9
sV6589671
p8604
V23
p8605
sV6627888
p8606
V4
sV6627889
p8607
V2
sV6552725
p8608
V19
p8609
sV6627880
p8610
V0
sV6627881
p8611
V0
sV6627882
p8612
V1
sV6627883
p8613
V2
sV6627884
p8614
V1
sV6578739
p8615
V256
p8616
sV6627886
p8617
V0
sV6627887
p8618
V1
sV6100442
p8619
V223
p8620
sV6627832
p8621
V3
sV6078628
p8622
V0
sV6551776
p8623
V22
p8624
sV6551772
p8625
V15
p8626
sV6627976
p8627
V45
p8628
sV6641379
p8629
V0
sV6553951
p8630
V6
sV6553956
p8631
V3
sV6100568
p8632
V50
p8633
sV6100563
p8634
V35
p8635
sV6545787
p8636
V122
p8637
sV6522077
p8638
V41
p8639
sV6545569
p8640
V311
p8641
sV6545563
p8642
V490
p8643
sV6636502
p8644
V2
sV6641959
p8645
V0
sV6552607
p8646
V40
p8647
sV6552606
p8648
V40
p8649
sV6552605
p8650
V50
p8651
sV6552604
p8652
V50
p8653
sV6552603
p8654
V13
p8655
sV6552602
p8656
V14
p8657
sV6552601
p8658
V14
p8659
sV6552600
p8660
V15
p8661
sV6578893
p8662
V85
p8663
sV6593315
p8664
V27
p8665
sV6521792
p8666
V24
p8667
sV6552609
p8668
V39
p8669
sV6552608
p8670
V37
p8671
sV5467276
p8672
V6
sV6557129
p8673
V0
sV6552959
p8674
V37
p8675
sV4672237
p8676
V27
p8677
sV6552954
p8678
V6
sV6554734
p8679
V23
p8680
sV6638436
p8681
V0
sV6611452
p8682
V21
p8683
sV6611453
p8684
V21
p8685
sV6611450
p8686
V19
p8687
sV6611451
p8688
V12
p8689
sV6611456
p8690
V13
p8691
sV6611457
p8692
V47
p8693
sV6611454
p8694
V53
p8695
sV6611455
p8696
V35
p8697
sV6611458
p8698
V28
p8699
sV6611459
p8700
V0
sV6607317
p8701
V0
sV6607314
p8702
V6
sV6677129
p8703
V30
p8704
sV6606999
p8705
V0
sV6557382
p8706
V5
sV4672057
p8707
V22
p8708
sV6606994
p8709
V0
sV6608334
p8710
V193
p8711
sV6228525
p8712
V33
p8713
sV6589841
p8714
V0
sV5158871
p8715
V0
sV5158873
p8716
V37
p8717
sV6599146
p8718
V74
p8719
sV6599142
p8720
V80
p8721
sV5158875
p8722
V36
p8723
sV6556652
p8724
V74
p8725
sV6558838
p8726
V493
p8727
sV6558839
p8728
V238
p8729
sV6558836
p8730
V591
p8731
sV6558837
p8732
V786
p8733
sV6558833
p8734
V621
p8735
sV6547237
p8736
V4
sV6547230
p8737
V54
p8738
sV6599201
p8739
V50
p8740
sV6599206
p8741
V49
p8742
sV6546568
p8743
V19
p8744
sV6091058
p8745
V18
p8746
sV6091050
p8747
V13
p8748
sV6656794
p8749
V18
p8750
sV6611266
p8751
V91
p8752
sV4412411
p8753
V14
p8754
sV4412419
p8755
V25
p8756
sV6571466
p8757
V1
sV6091272
p8758
V6
sV6268674
p8759
V93
p8760
sV6637254
p8761
V79
p8762
sV6637920
p8763
V0
sV6637257
p8764
V134
p8765
sV6637250
p8766
V49
p8767
sV6637253
p8768
V62
p8769
sV6590137
p8770
V144
p8771
sV6637259
p8772
V27
p8773
sV5282944
p8774
V4
sV6610085
p8775
V55
p8776
sV6589287
p8777
V2
sV6589286
p8778
V3
sV6640707
p8779
V9
sV6630592
p8780
V5
sV6630593
p8781
V1
sV6630590
p8782
V1
sV6630591
p8783
V3
sV6589289
p8784
V53
p8785
sV6589288
p8786
V59
p8787
sV6642567
p8788
V0
sV6641036
p8789
V0
sV6610263
p8790
V86
p8791
sV6521968
p8792
V27
p8793
sV6593760
p8794
V1
sV4412499
p8795
V13
p8796
sV5973265
p8797
V45
p8798
sV6547846
p8799
V364
p8800
sV6547845
p8801
V158
p8802
sV6547844
p8803
V96
p8804
sV6547843
p8805
V145
p8806
sV6547842
p8807
V293
p8808
sV6547841
p8809
V238
p8810
sV6547840
p8811
V93
p8812
sV4412491
p8813
V5
sV6553140
p8814
V110
p8815
sV6553145
p8816
V104
p8817
sV6627332
p8818
V0
sV6643939
p8819
V105
p8820
sV6607451
p8821
V7
sV4696153
p8822
V55
p8823
sV6607456
p8824
V33
p8825
sV6607106
p8826
V0
sV6607101
p8827
V0
sV6627191
p8828
V2
sV6599302
p8829
V3
sV6532021
p8830
V84
p8831
sV6532020
p8832
V81
p8833
sV6532023
p8834
V810
p8835
sV6532022
p8836
V85
p8837
sV6532025
p8838
V43
p8839
sV6532024
p8840
V1446
p8841
sV6532027
p8842
V88
p8843
sV6532026
p8844
V65
p8845
sV6532029
p8846
V86
p8847
sV6532028
p8848
V81
p8849
sV6546556
p8850
V8
sV6546557
p8851
V10
p8852
sV6546554
p8853
V0
sV6546555
p8854
V0
sV6546553
p8855
V1
sV6546550
p8856
V0
sV6141461
p8857
V123
p8858
sV6521228
p8859
V1
sV6546558
p8860
V0
sV6546559
p8861
V0
sV6519787
p8862
V79
p8863
sV6519786
p8864
V53
p8865
sV6519785
p8866
V60
p8867
sV6519784
p8868
V46
p8869
sV6519783
p8870
V83
p8871
sV6519782
p8872
V67
p8873
sV6519781
p8874
V244
p8875
sV6519780
p8876
V246
p8877
sV6519789
p8878
V51
p8879
sV6519788
p8880
V79
p8881
sV6656898
p8882
V0
sV5721570
p8883
V9
sV6549852
p8884
V39
p8885
sV6546883
p8886
V14
p8887
sV6658671
p8888
V0
sV6657000
p8889
V0
sV6589078
p8890
V20
p8891
sV6589079
p8892
V33
p8893
sV6589074
p8894
V15
p8895
sV6589075
p8896
V3
sV6589076
p8897
V5
sV6589077
p8898
V13
p8899
sV6589070
p8900
V30
p8901
sV6589071
p8902
V7
sV6589072
p8903
V0
sV6589073
p8904
V38
p8905
sV5721458
p8906
V19
p8907
sV5721326
p8908
V0
sV5721322
p8909
V8
sV6657147
p8910
V0
sV6657143
p8911
V0
sV6078422
p8912
V2
sV6228516
p8913
V0
sV6205606
p8914
V32
p8915
sV6656635
p8916
V9
sV6205600
p8917
V11
p8918
sV6656630
p8919
V2
sV6547068
p8920
V34
p8921
sV6228844
p8922
V77
p8923
sV6228849
p8924
V42
p8925
sV6627917
p8926
V1
sV6658582
p8927
V16
p8928
sV6657858
p8929
V0
sV6551712
p8930
V4
sV6551716
p8931
V13
p8932
sV6553973
p8933
V0
sV6553977
p8934
V0
sV6143537
p8935
V41
p8936
sV6627928
p8937
V0
sV6143530
p8938
V46
p8939
sV6531994
p8940
V91
p8941
sV6531995
p8942
V94
p8943
sV6545767
p8944
V469
p8945
sV6531996
p8946
V98
p8947
sV6545763
p8948
V56
p8949
sV6627924
p8950
V2
sV6531990
p8951
V93
p8952
sV6644012
p8953
V43
p8954
sV6627922
p8955
V1
sV6552597
p8956
V47
p8957
sV6552596
p8958
V50
p8959
sV6552595
p8960
V49
p8961
sV6552594
p8962
V47
p8963
sV6552593
p8964
V49
p8965
sV6552592
p8966
V47
p8967
sV6552591
p8968
V48
p8969
sV6552590
p8970
V45
p8971
sV6521555
p8972
V15
p8973
sV6531993
p8974
V90
p8975
sV6521222
p8976
V28
p8977
sV6552599
p8978
V13
p8979
sV6552598
p8980
V14
p8981
sV6029287
p8982
V146
p8983
sV6554285
p8984
V7
sV6552628
p8985
V86
p8986
sV6554535
p8987
V6
sV6627911
p8988
V1
sV6641930
p8989
V1
sV6626805
p8990
V2
sV6552623
p8991
V90
p8992
sV6552622
p8993
V64
p8994
sV6552625
p8995
V86
p8996
sV6552624
p8997
V83
p8998
sV6552627
p8999
V90
p9000
sV6552626
p9001
V88
p9002
sV6552629
p9003
V88
p9004
sV6557598
p9005
V148
p9006
sV6542045
p9007
V14
p9008
s.