c__builtin__
set
p0
((lp1
S'Vermeil'
p2
aS'Feeding'
p3
aS'Puncture Resistant'
p4
aS'Tie Clips'
p5
aS'Stretch'
p6
aS'Bungee'
p7
aS'Boxers'
p8
aS'Boating'
p9
aS'Teardrop'
p10
aS'Skirts, Scooters & Skorts'
p11
aS'Track & Field & Cross Country'
p12
aS'Personalized'
p13
aS'Cheerleading'
p14
aS'Plus'
p15
aS'Designer'
p16
aS'Tote'
p17
aS'Combat'
p18
aS'Petite'
p19
aS'Footies & Rompers'
p20
aS'Pullovers'
p21
aS'Glass'
p22
aS'Night Out & Special Occasion'
p23
aS'Shapewear'
p24
aS'Western'
p25
aS'Bracelets'
p26
aS'Other Materials'
p27
aS'Figaro'
p28
aS'Climbing'
p29
aS'Carry-Ons'
p30
aS'Card & ID Cases'
p31
aS'Handbag Hangers'
p32
aS'Field Hockey & Lacrosse'
p33
aS'Bucket Hats'
p34
aS'Bra Extenders'
p35
aS'Berets'
p36
aS'Card Cases'
p37
aS'Wallets & Money Organizers'
p38
aS'Bowling'
p39
aS'Streetwear'
p40
aS'Antique'
p41
aS'Copper'
p42
aS'Luggage Straps'
p43
aS'Tap'
p44
aS'Polishes & Dyes'
p45
aS'Hiking'
p46
aS'Juniors and Surf & Skate'
p47
aS'Hiking Boots'
p48
aS'Hiking Shoes'
p49
aS'Outerwear'
p50
aS'Henleys'
p51
aS'Sleep & Lounge'
p52
aS'Clog Shape'
p53
aS'Motorcycle'
p54
aS'Tunics'
p55
aS'Tuxedo'
p56
aS'Pleated'
p57
aS'Luggage Sets'
p58
aS'Composite Toe'
p59
aS'Cloth Diapers'
p60
aS'Stud'
p61
aS'Chains'
p62
aS'Shoe Care Kits & Sets'
p63
aS'Religious Jewelry'
p64
aS'Novelty'
p65
aS'Pairs'
p66
aS'Diapering'
p67
aS'Active Tracksuits'
p68
aS'Active Hoodies'
p69
aS'Mittens'
p70
aS'Oversized'
p71
aS'Minimizers'
p72
aS'Blazers & Suit Jackets'
p73
aS'Promise Rings'
p74
aS'Eyeglass Cases'
p75
aS'Active & All Weather'
p76
aS'Thermal Underwear'
p77
aS'Lobster Claw'
p78
aS'Squash'
p79
aS'Athletic Shoe Shape'
p80
aS'Boys'
p81
aS'Link'
p82
aS'Active Underwear'
p83
aS'Down & Parkas'
p84
aS'Bikini & Hipster'
p85
aS'Steel Toe'
p86
aS'Dress Coats'
p87
aS'Active Skirts'
p88
aS'Push-Up'
p89
aS'Espadrille'
p90
aS'Swarovski'
p91
aS'Big & Tall'
p92
aS'Gloves'
p93
aS'Spectator'
p94
aS'Cosmetic Bags'
p95
aS'Brilliant Cut'
p96
aS'Passport Wallets'
p97
aS'Static Dissipative'
p98
aS"Girls' Jewelry"
p99
aS'Skirted'
p100
aS'Outerwear & Coats'
p101
aS'Ballroom'
p102
aS'Swim Dress'
p103
aS'Children'
p104
aS'Lingerie'
p105
aS'Bloomers, Diaper Covers & Underwear'
p106
aS'Slip-On & Pull-On'
p107
aS'Religious'
p108
aS'Water Resistant'
p109
aS'Travel Accessories'
p110
aS'Boy Shorts'
p111
aS'Loafers'
p112
aS'Wedding Rings'
p113
aS'Mountaineering Boots'
p114
aS'Husky'
p115
aS'Building Supplies'
p116
aS'Lighted'
p117
aS'Scuff'
p118
aS'Snowsuits, Pants & Bibs'
p119
aS'Relaxed'
p120
aS'Brushed Finish'
p121
aS'Under 1"'
p122
aS'Wedding'
p123
aS'One Shoulder'
p124
aS'Bridal Sets'
p125
aS'Necklaces'
p126
aS'Endless'
p127
aS'Bras'
p128
aS'Multi'
p129
aS'Engagement'
p130
aS'Apparel & Accessories'
p131
aS'Leather'
p132
aS'Hoops'
p133
aS'Piercing'
p134
aS'Volleyball'
p135
aS'Slide'
p136
aS'Bridal Veils'
p137
aS'Huggie'
p138
aS'Pads & Enhancers'
p139
aS'Active & Performance'
p140
aS'Racerback'
p141
aS'Wedge'
p142
aS'Hoodies & Active'
p143
aS'Baby Boys'
p144
aS'Active Skorts'
p145
aS'Tiffany'
p146
aS'Wrestling'
p147
aS'Work Wear & Uniforms'
p148
aS'Cubic Zirconia'
p149
aS'Padded'
p150
aS'Safety & Security'
p151
aS'Appliances'
p152
aS'Skateboarding'
p153
aS'Wrap'
p154
aS'Cuffs & Wraps'
p155
aS'Loafers & Slip-Ons'
p156
aS'Wristband'
p157
aS'Penny-Loafer'
p158
aS'Wire-Free'
p159
aS'Engravable'
p160
aS'Cultured'
p161
aS'Knee-high'
p162
aS'Special Occasion'
p163
aS'Sandal Shape'
p164
aS'Vests'
p165
aS'Comfort Fit'
p166
aS'Cardigans'
p167
aS'Christmas'
p168
aS'Bootie'
p169
aS'Diaper Changing Kits'
p170
aS'Wedding Dresses'
p171
aS'Stainless Steel'
p172
aS'Storage & Home Organization'
p173
aS'Gift Sets'
p174
aS'Car Seats & Accessories'
p175
aS'Loose Gemstones'
p176
aS'Belly Bands'
p177
aS'Tungsten'
p178
aS'Sandals'
p179
aS'Uniform & School Shoes'
p180
aS'Changing Table Pads & Covers'
p181
aS'Certified'
p182
aS'Formal'
p183
aS'Rolling & Wheeled'
p184
aS'Straps'
p185
aS'Tank'
p186
aS'Replacement Sunglass Lenses'
p187
aS'Suits & Sport Coats'
p188
aS'Clip-Ons'
p189
aS'Travel Wallets'
p190
aS'Slide Shape'
p191
aS'Jewelry Boxes & Organizers'
p192
aS'Casual Daypacks'
p193
aS'Tuxedo Pants'
p194
aS'Denim'
p195
aS'Jeans'
p196
aS'Rhinestone'
p197
aS'Bodysuits'
p198
aS'Nursery'
p199
aS'Cuff Links'
p200
aS'Beach Flip Flops & Athletic Slides'
p201
aS'Cycling'
p202
aS'Zip'
p203
aS'Movie & TV Fan Apparel'
p204
aS'Tie-side'
p205
aS'Undershirts'
p206
aS'Shoe Horns & Boot Jacks'
p207
aS'Flat Front'
p208
aS'Hip Hop'
p209
aS'Athletic & Outdoor'
p210
aS'Button-Down Shirts'
p211
aS'Full'
p212
aS'Baby & Toddler Toys'
p213
aS'Trunks'
p214
aS'Rain'
p215
aS'Mule'
p216
aS'Shearling'
p217
aS"D'Orsay & Two-Piece"
p218
aS'Emerald'
p219
aS'Wrist'
p220
aS'Palladium'
p221
aS'Handkerchiefs'
p222
aS'Backless'
p223
aS'Active Top & Bottom Sets'
p224
aS'Bridesmaid Dresses'
p225
aS'Tankinis'
p226
aS'No Stones'
p227
aS'Slide Flat Shape'
p228
aS'Compatible'
p229
aS'Shoe Inserts & Insoles'
p230
aS'Solitaire'
p231
aS'Sets'
p232
aS'Earring Jackets'
p233
aS'Cufflinks'
p234
aS'Active'
p235
aS'Wedding & Engagement Rings'
p236
aS'Athletic Socks'
p237
aS'Hooded'
p238
aS'Nursing & Maternity Bras'
p239
aS'Half Slips'
p240
aS'Laptop'
p241
aS'Shoe Dryers'
p242
aS'Mountaineering'
p243
aS'Sandal Flat Shape'
p244
aS'Top-Handle Bags'
p245
aS'Hiking & Trekking'
p246
aS'Sport'
p247
aS'Fashion Scarves'
p248
aS'Cloth Diaper Accessories'
p249
aS'Baby Girls'
p250
aS'Platinum'
p251
aS'Heavy Equipment & Agricultural Supplies'
p252
aS'Diaper Stackers & Caddies'
p253
aS'Non Pierced'
p254
aS'Jewelry Sets'
p255
aS'Screw-Back'
p256
aS'Plus Size'
p257
aS'Platform'
p258
aS'One-Pieces'
p259
aS'Slip-On'
p260
aS'Bath & Body'
p261
aS'Visors'
p262
aS'Riding'
p263
aS'Dresses'
p264
aS'Shoe Bags'
p265
aS'Passport Covers'
p266
aS'Plunge'
p267
aS'Swarovski Elements'
p268
aS'Stilleto'
p269
aS'Skullies & Beanies'
p270
aS'Oval Shaped'
p271
aS'Scarves & Wraps'
p272
aS'Cleaning & Care'
p273
aS'Brooches & Pins'
p274
aS'Baby'
p275
aS'Fedoras'
p276
aS'Stone'
p277
aS'Ring Enhancers'
p278
aS'Cover-Ups'
p279
aS'Active Vests'
p280
aS'Metal'
p281
aS'Luggage Tags'
p282
aS'Akoya'
p283
aS'Baseball Caps'
p284
aS'Headbands'
p285
aS'Handcrafted'
p286
aS'Flower Girl Dresses'
p287
aS'Exotic Apparel'
p288
aS'Eyelet'
p289
aS'Fur & Faux Fur'
p290
aS'Soft'
p291
aS'Chronograph'
p292
aS'Walking'
p293
aS'Charms'
p294
aS'Chain'
p295
aS'Photo'
p296
aS'Active Leggings'
p297
aS'Titanium'
p298
aS'Pants & Capris'
p299
aS'A-Line'
p300
aS'Sleepwear & Robes'
p301
aS'Snow Boots'
p302
aS'Mid-calf'
p303
aS'Crosses'
p304
aS'Elastic'
p305
aS'Bomber Hats'
p306
aS'Travel Duffels'
p307
aS'Modern'
p308
aS'Fashion Sneakers'
p309
aS'Socks & Hosiery'
p310
aS'Indian'
p311
aS'Electrical'
p312
aS'Hair Care'
p313
aS'Ankle'
p314
aS'Earrings'
p315
aS'Carbon Fiber'
p316
aS'Diamond'
p317
aS'Tops & Tees'
p318
aS'Bow Ties'
p319
aS'Laptop Bags & Cases'
p320
aS'Checkpoint-friendly'
p321
aS'Surf & Skate'
p322
aS'Bikinis'
p323
aS'Fitness & Cross-Training'
p324
aS'Post'
p325
aS'Bandeau'
p326
aS'Wear to Work'
p327
aS'Body Jewelry'
p328
aS'Cold Weather'
p329
aS'Mules & Clogs'
p330
aS'Masonic'
p331
aS'Short Sets'
p332
aS'Belts'
p333
aS'Wind & Rain'
p334
aS'Anniversary Rings'
p335
aS'Clogs & Mules'
p336
aS'Plain Bands'
p337
aS'Set of 4'
p338
aS'Tonneau'
p339
aS'Flats'
p340
aS'Dog Tag'
p341
aS'Full Coverage'
p342
aS'Shoes'
p343
aS'Balaclavas'
p344
aS'Flip Flop'
p345
aS'Related Accessories'
p346
aS'Electrical Hazard'
p347
aS'Collar'
p348
aS'Nightgowns & Sleepshirts'
p349
aS'Oval'
p350
aS'Button-Down & Dress Shirts'
p351
aS'Active Shorts'
p352
aS'Gladiator'
p353
aS'Ballet'
p354
aS'Casual Shoe Shape'
p355
aS'Unisex'
p356
aS'Crib Shoes'
p357
aS'Indoor Multisport Court Shoes'
p358
aS'Eyeglass Chains'
p359
aS'Pendants'
p360
aS'Swirl'
p361
aS'Luggage Locks'
p362
aS'Soccer'
p363
aS'Work & Safety'
p364
aS'Diamond Bands'
p365
aS'Metatarsal Guard'
p366
aS"Boys' Jewelry"
p367
aS'Shoe Care & Accessories'
p368
aS'Baby Dolls'
p369
aS'Cross-Body Bags'
p370
aS'Pumps'
p371
aS'Invisible'
p372
aS'Wayfarer'
p373
aS'Shrugs'
p374
aS'T-Shirts'
p375
aS'Lighting & Ceiling Fans'
p376
aS'Tank Tops'
p377
aS'Underwear'
p378
aS'Rugby'
p379
aS'Long Sleeve'
p380
aS'Trench & Rain'
p381
aS'Alarm'
p382
aS'Drop'
p383
aS'Trendy'
p384
aS'Kitchen & Bath Fixtures'
p385
aS'Austrian Crystal'
p386
aS'Lobster Clasp'
p387
aS'Screw Back'
p388
aS'Luminous'
p389
aS'Mother of the Bride Dresses'
p390
aS'Health & Baby Care'
p391
aS'Novelty & Special Use'
p392
aS'Briefs'
p393
aS'Matching'
p394
aS'Shoe Decoration Charms'
p395
aS'Hats & Caps'
p396
aS'Garters'
p397
aS'Bezel'
p398
aS"Kids' Boutique"
p399
aS'Eyewear & Eyewear Accessories'
p400
aS'Ballet Slippers & Pointe Shoes'
p401
aS'Character'
p402
aS'Travel Totes'
p403
aS'Suits'
p404
aS'Sport Sandals'
p405
aS'Fragrance'
p406
aS'Active Pants'
p407
aS'Tights & Hosiery'
p408
aS'Over-the-knee'
p409
aS'European'
p410
aS'Slips'
p411
aS'Blouses & Button-Down Shirts'
p412
aS'Evening Bags'
p413
aS'Mary Jane'
p414
aS'Suitcases'
p415
aS'Slipper Socks'
p416
aS'Chemises & Negligees'
p417
aS'Makeup'
p418
aS'Lingerie Sets'
p419
aS'Pant Sets'
p420
aS'Rimless'
p421
aS'Gold Plated'
p422
aS'Curb Chain'
p423
aS'Overalls'
p424
aS'Water Shoes'
p425
aS'Diaper Bags'
p426
aS'Scoop Neck'
p427
aS'Outdoor'
p428
aS'Bathing & Skin Care'
p429
aS'Crystal'
p430
aS'G-Strings & Thongs'
p431
aS'Slip Resistant'
p432
aS'Birthstone'
p433
aS'Strapless'
p434
aS'J Hoop'
p435
aS'Italian'
p436
aS'Drawstring Bags'
p437
aS'Adjustable'
p438
aS'Gold'
p439
aS'Night Out & Cocktail'
p440
aS'Necklaces & Pendants'
p441
aS'Mother of Pearl'
p442
aS'Coin Purses & Pouches'
p443
aS'Flat Shape'
p444
aS'Round Cut'
p445
aS'Toggle'
p446
aS'Portable Changing Pads'
p447
aS'Cut Out'
p448
aS'Earmuffs'
p449
aS'Presentation Box'
p450
aS'Playwear'
p451
aS'Rings'
p452
aS'Fleece'
p453
aS'Heeled Sandal Shape'
p454
aS'Rhodium'
p455
aS'Bells'
p456
aS'Pencil'
p457
aS'Clutches'
p458
aS'Fashion Waist Packs'
p459
aS'Backpacking Boots'
p460
aS'Sweaters'
p461
aS'Tie Pins'
p462
aS'Fashion Hoodies & Sweatshirts'
p463
aS'Money Clips'
p464
aS'Large Size'
p465
aS'Scarves'
p466
aS'Brass'
p467
aS'Boy Short'
p468
aS'Sterling'
p469
aS'Racquet Sports'
p470
aS'Natural'
p471
aS'Skin Care'
p472
aS'Timeless'
p473
aS'Dress Shoe Shape'
p474
aS'Wristlets'
p475
aS'Hook & Loop'
p476
aS'Oxfords'
p477
aS'Stackable'
p478
aS'Peds & Liners'
p479
aS'Engraved'
p480
aS'Skirts'
p481
aS'Sports Bras'
p482
aS'World Apparel'
p483
aS'Dance'
p484
aS'Heavy Duty'
p485
aS'Breast Petals'
p486
aS'Socks'
p487
aS'Gym Totes'
p488
aS'Packing Organizers'
p489
aS'Small Size'
p490
aS'Cargo'
p491
aS'Ballet & Dance'
p492
aS'Travel'
p493
aS'Girls'
p494
aS'Changing Tables'
p495
aS'Wraps & Pashminas'
p496
aS'Pearl'
p497
aS'Murano'
p498
aS'Suit Pants'
p499
aS'Rectangle'
p500
aS'Dress & Trouser Socks'
p501
aS'High Neck'
p502
aS'Halter'
p503
aS'Boxer Briefs'
p504
aS'Robes'
p505
aS'Wallets'
p506
aS'Short Sleeve'
p507
aS'Floral'
p508
aS'Commuter Pass Cases'
p509
aS'Painting Supplies & Wall Treatments'
p510
aS'Princess'
p511
aS'Women'
p512
aS'Business Card Cases'
p513
aS'Size 7'
p514
aS'Size 11'
p515
aS'Control Slips'
p516
aS'T-Shirt'
p517
aS'Fisherman'
p518
aS'Mountaineering Hard Shell'
p519
aS'Jammers'
p520
aS'Diamond Accented'
p521
aS'Round'
p522
aS'Costumes & Accessories'
p523
aS'Upper'
p524
aS'Sports Clothing'
p525
aS'Cowl Neck'
p526
aS'Classic'
p527
aS'Trend'
p528
aS'Garnet'
p529
aS'Hoop'
p530
aS'Boots'
p531
aS'Cobalt'
p532
aS'Clothing Sets'
p533
aS'Hobo'
p534
aS'Rain Hats'
p535
aS'Briefcases'
p536
aS'Control Panties'
p537
aS"Kids' Backpacks"
p538
aS'Knits & Tees'
p539
aS'Basketball'
p540
aS'Racquetball'
p541
aS'Sun Hats'
p542
aS'Bangle'
p543
aS'Buckle'
p544
aS'Tennis'
p545
aS'Princess Cut'
p546
aS'Chukka'
p547
aS'Bridal'
p548
aS'Wool'
p549
aS'Wool & Blends'
p550
aS'Keyrings & Keychains'
p551
aS'Panties'
p552
aS'Sunglasses'
p553
aS'Gear'
p554
aS'Engagement Rings'
p555
aS'Jazz'
p556
aS'Alert'
p557
aS'Receiving Blankets'
p558
aS'Charm'
p559
aS'Neckties'
p560
aS'Rain Footwear'
p561
aS'Pants'
p562
aS'Newsboy Caps'
p563
aS'Leather & Suede'
p564
aS'Luggage'
p565
aS'Smokey Quartz'
p566
aS'Sleeveless'
p567
aS'Coral'
p568
aS'Hunting'
p569
aS'Pantsuits'
p570
aS'Cuff'
p571
aS'Active Sweatshirts'
p572
aS'Hosiery'
p573
aS'Everyday Bras'
p574
aS'Shoe & Boot Trees'
p575
aS'Adhesive Bras'
p576
aS'Sport Coats & Blazers'
p577
aS'Casual Socks'
p578
aS'Waterproof'
p579
aS'Electric Shoe Polishers'
p580
aS'Victorian'
p581
aS'Changing Mat'
p582
aS'All in One'
p583
aS'Girl'
p584
aS'Casual'
p585
aS'Skirt Sets'
p586
aS'Baguette'
p587
aS'Polos'
p588
aS'Gift Box'
p589
aS'Braided'
p590
aS'Triangle Tops'
p591
aS'Novelty Jewelry'
p592
aS'Shorts'
p593
aS'Stopwatch'
p594
aS'Studded'
p595
aS'Gemstone'
p596
aS'Luggage Carts'
p597
aS'Socks & Tights'
p598
aS'Strands'
p599
aS'Y-Necklaces'
p600
aS'Football'
p601
aS'Suit Jackets'
p602
aS'Ice & Snow Grips'
p603
aS'Intimates'
p604
aS'Shoelaces'
p605
aS'Athletic Supporters'
p606
aS'Tools & Accessories'
p607
aS'Shock Resistant'
p608
aS'Jumpsuits & Rompers'
p609
aS'Rain Boots'
p610
aS'Wool & Sherpa Coats'
p611
aS'Sterling Silver'
p612
aS'Arm Warmers'
p613
aS'Shoulder Bags'
p614
aS'Fashion'
p615
aS'Baby Stationery'
p616
aS'Shoe Brushes'
p617
aS'Slouch'
p618
aS'Prescription Eyewear Frames'
p619
aS'Soft Toe'
p620
aS'Contemporary'
p621
aS'Safety'
p622
aS'Leg Warmers'
p623
aS'Dress'
p624
aS'Suspenders'
p625
aS'Active Base Layers'
p626
aS'Cat Eye'
p627
aS'Handbags'
p628
aS'Underwire'
p629
aS'Vintage'
p630
aS'Basic'
p631
aS'Lightweight Jackets'
p632
aS'Accessories'
p633
aS'V-Neck'
p634
aS"Kids' Luggage"
p635
aS'Messenger'
p636
aS'Two-Piece Suits'
p637
aS'Wheeled Heel'
p638
aS'Engineer & Harness'
p639
aS'Sleep Bottoms'
p640
aS'Men'
p641
aS'Band T-Shirts & Music Fan Apparel'
p642
aS'Gifts'
p643
aS'Leggings'
p644
aS'Rhodium Plated'
p645
aS'Convertible'
p646
aS'Christening'
p647
aS'Strand'
p648
aS'Bag Organizers'
p649
aS'Moccasin'
p650
aS'Work Boot Shape'
p651
aS'Straight'
p652
aS'Huarache'
p653
aS'Diaper Creams & Ointments'
p654
aS'Tuxedos'
p655
aS"Men's Jewelry"
p656
aS'Pump Shape'
p657
aS'Slippers'
p658
aS'Layette Sets'
p659
aS'Square'
p660
aS'Rash Guards'
p661
aS'Messenger Bags'
p662
aS'Crewneck'
p663
aS'Equestrian Sport Boots'
p664
aS'Drop & Dangle'
p665
aS'Calendar'
p666
aS'Dress Boot Shape'
p667
aS'Bustiers & Corsets'
p668
aS'ID Cases'
p669
aS'Hipsters'
p670
aS'Pregnancy & Maternity'
p671
aS'Tuxedo Jackets'
p672
aS'Sapphire'
p673
aS'Gloves & Mittens'
p674
aS'Potty Training'
p675
aS'Swarovski Crystal'
p676
aS'Lockets'
p677
aS'Demi & Balconette'
p678
aS'Sneakers'
p679
aS'Luxury'
p680
aS'Citrine'
p681
aS'Camisoles & Tanks'
p682
aS'Winnie the Pooh'
p683
aS'Anklets'
p684
aS'Freshwater'
p685
aS'Ball'
p686
aS'Baseball & Softball'
p687
aS'Dangling'
p688
aS'Tops'
p689
aS'Cowboy Hats'
p690
aS'Hiking Daypacks'
p691
aS'Garment Bags'
p692
aS'Bottoms'
p693
aS'Power & Hand Tools'
p694
aS'Brushed'
p695
aS'Checkbook Covers'
p696
aS'Diaper Pails & Refills'
p697
aS'Strollers'
p698
aS'Gemstones'
p699
aS'Thigh Slimmers'
p700
aS'Racing'
p701
aS'Satchel'
p702
aS'Anniversary'
p703
aS'Beaded'
p704
aS'Hair Accessories'
p705
aS'Chelsea'
p706
aS'Nursing'
p707
aS'Track & Active Jackets'
p708
aS'Golf'
p709
aS'Bibs & Burp Cloths'
p710
aS'Cold Weather & Shearling'
p711
aS'Lace-up'
p712
aS'Indoor'
p713
aS'Neck Gaiters'
p714
aS'Board Shorts'
p715
aS'Full Slips'
p716
aS'Gym Bags'
p717
aS'Blazers & Jackets'
p718
aS'Rock Climbing'
p719
aS'G-Strings, Thongs & Tangas'
p720
aS'Backpacks'
p721
aS'Boat'
p722
aS'Work Wear'
p723
aS'Lariat'
p724
aS'Molded'
p725
aS'Sleep Tops'
p726
aS'Wipes & Holders'
p727
aS'Chokers'
p728
aS'Dangle'
p729
aS'Active Shirts & Tees'
p730
aS'Luggage Scales'
p731
aS'Disposable Diapers'
p732
aS'Eternity Rings'
p733
aS'Swim'
p734
aS'Hardware'
p735
aS'Insulated'
p736
aS'Sweater Dresses'
p737
aS'Dress Suits'
p738
aS'Rough Plumbing'
p739
aS'Luggage & Bags'
p740
aS'Shirt Studs'
p741
aS'Running'
p742
aS'Tanks & Camis'
p743
aS'Shoe Measuring Devices'
p744
aS'Trail Running'
p745
aS'Aviator'
p746
aS'Picture'
p747
aS'Tights'
p748
aS'Waist Cinchers'
p749
aS'Identification'
p750
aS'Skirt Suits'
p751
aS'Hinged'
p752
aS'Sports Duffels'
p753
aS"Children's Jewelry"
p754
aS'One-Piece Suits'
p755
aS'Curb Link'
p756
aS'Thong'
p757
aS'Powders'
p758
aS'Pendant Enhancers'
p759
aS'Street, Surf & Skate'
p760
aS'Maternity'
p761
aS'Umbrellas'
p762
aS'Sleep Sets'
p763
aS'Pearl Strands'
p764
aS'Strapless & Tube'
p765
aS'First Walkers'
p766
atp767
Rp768
.